(dp0
(I0
I0
I0
I0
I0
I0
I0
I0
I0
I0
I0
I0
I0
I0
I0
I1
I1
I3
I4
I6
tp1
F181.78706529698107
s(I0
I0
I0
I0
I0
I0
I0
I0
I0
I0
I0
I0
I0
I0
I0
I2
I2
I3
I4
I6
tp2
F182.9206692759936
s(I0
I0
I0
I0
I0
I0
I0
I0
I0
I0
I0
I0
I0
I0
I0
I1
I1
I1
I3
I4
tp3
F181.78706529698107
s(I0
I0
I0
I0
I0
I0
I0
I0
I0
I0
I0
I0
I0
I0
I0
I2
I3
I4
I4
I4
tp4
F185.9221221633605
s(I0
I0
I0
I0
I0
I0
I0
I0
I0
I0
I0
I0
I0
I0
I0
I2
I2
I5
I6
I6
tp5
F183.90109684549563
s(I0
I0
I0
I0
I0
I0
I0
I0
I0
I0
I0
I0
I0
I0
I0
I1
I1
I1
I1
I2
tp6
F186.88334624634234
s(I0
I0
I0
I0
I0
I0
I0
I0
I0
I0
I0
I0
I0
I0
I0
I2
I5
I5
I5
I6
tp7
F188.23533976400518
s(I0
I0
I0
I0
I0
I0
I0
I0
I0
I0
I0
I0
I0
I0
I0
I1
I3
I3
I5
I6
tp8
F181.8376271425904
s(I0
I0
I0
I0
I0
I0
I0
I0
I0
I0
I0
I0
I0
I0
I0
I2
I2
I2
I3
I4
tp9
F183.0322978601304
s(I0
I0
I0
I0
I0
I0
I0
I0
I0
I0
I0
I0
I0
I0
I0
I4
I5
I5
I6
I6
tp10
F187.98827861050867
s(I0
I0
I0
I0
I0
I0
I0
I0
I0
I0
I0
I0
I0
I0
I0
I3
I4
I4
I4
I5
tp11
F185.9221221633605
s(I0
I0
I0
I0
I0
I0
I0
I0
I0
I0
I0
I0
I0
I0
I0
I3
I3
I3
I3
I3
tp12
F221.7156243769086
s(I0
I0
I0
I0
I0
I0
I0
I0
I0
I0
I0
I0
I0
I0
I0
I2
I2
I2
I5
I5
tp13
F190.97302284744444
s(I0
I0
I0
I0
I0
I0
I0
I0
I0
I0
I0
I0
I0
I0
I0
I1
I2
I2
I5
I5
tp14
F182.77703047721047
s(I0
I0
I0
I0
I0
I0
I0
I0
I0
I0
I0
I0
I0
I0
I0
I1
I1
I3
I6
I6
tp15
F183.90109684549563
s(I0
I0
I0
I0
I0
I0
I0
I0
I0
I0
I0
I0
I0
I0
I0
I1
I1
I1
I2
I3
tp16
F181.01378681291533
s(I0
I0
I0
I0
I0
I0
I0
I0
I0
I0
I0
I0
I0
I0
I0
I3
I3
I4
I4
I6
tp17
F181.9882786105086
s(I0
I0
I0
I0
I0
I0
I0
I0
I0
I0
I0
I0
I0
I0
I0
I2
I2
I2
I4
I5
tp18
F183.0322978601304
s(I0
I0
I0
I0
I0
I0
I0
I0
I0
I0
I0
I0
I0
I0
I0
I1
I3
I3
I3
I3
tp19
F191.0692318378171
s(I0
I0
I0
I0
I0
I0
I0
I0
I0
I0
I0
I0
I0
I0
I0
I1
I2
I2
I3
I6
tp20
F181.38558196960744
s(I0
I0
I0
I0
I0
I0
I0
I0
I0
I0
I0
I0
I0
I0
I0
I2
I6
I6
I6
I6
tp21
F198.26514928156683
s(I0
I0
I0
I0
I0
I0
I0
I0
I0
I0
I0
I0
I0
I0
I0
I1
I2
I3
I4
I6
tp22
F186.71127021579807
s(I0
I0
I0
I0
I0
I0
I0
I0
I0
I0
I0
I0
I0
I0
I0
I4
I4
I5
I6
I6
tp23
F186.98827861050864
s(I0
I0
I0
I0
I0
I0
I0
I0
I0
I0
I0
I0
I0
I0
I0
I1
I4
I5
I5
I6
tp24
F182.98827861050862
s(I0
I0
I0
I0
I0
I0
I0
I0
I0
I0
I0
I0
I0
I0
I0
I3
I3
I3
I5
I5
tp25
F190.97302284744444
s(I0
I0
I0
I0
I0
I0
I0
I0
I0
I0
I0
I0
I0
I0
I0
I1
I1
I1
I5
I6
tp26
F181.8376271425904
s(I0
I0
I0
I0
I0
I0
I0
I0
I0
I0
I0
I0
I0
I0
I0
I1
I2
I4
I4
I4
tp27
F185.9221221633605
s(I0
I0
I0
I0
I0
I0
I0
I0
I0
I0
I0
I0
I0
I0
I0
I1
I3
I5
I6
I6
tp28
F183.90109684549563
s(I0
I0
I0
I0
I0
I0
I0
I0
I0
I0
I0
I0
I0
I0
I0
I1
I4
I5
I5
I5
tp29
F187.45257228850062
s(I0
I0
I0
I0
I0
I0
I0
I0
I0
I0
I0
I0
I0
I0
I0
I2
I2
I4
I4
I5
tp30
F181.95184320066394
s(I0
I0
I0
I0
I0
I0
I0
I0
I0
I0
I0
I0
I0
I0
I0
I2
I3
I3
I3
I3
tp31
F191.0692318378171
s(I0
I0
I0
I0
I0
I0
I0
I0
I0
I0
I0
I0
I0
I0
I0
I2
I2
I2
I2
I3
tp32
F189.19421586710746
s(I0
I0
I0
I0
I0
I0
I0
I0
I0
I0
I0
I0
I0
I0
I0
I1
I1
I1
I3
I5
tp33
F181.46626798048857
s(I0
I0
I0
I0
I0
I0
I0
I0
I0
I0
I0
I0
I0
I0
I0
I1
I1
I1
I1
I3
tp34
F186.88334624634234
s(I0
I0
I0
I0
I0
I0
I0
I0
I0
I0
I0
I0
I0
I0
I0
I1
I2
I3
I5
I5
tp35
F182.77703047721047
s(I0
I0
I0
I0
I0
I0
I0
I0
I0
I0
I0
I0
I0
I0
I0
I3
I3
I3
I5
I6
tp36
F185.23533976400515
s(I0
I0
I0
I0
I0
I0
I0
I0
I0
I0
I0
I0
I0
I0
I0
I3
I3
I5
I5
I6
tp37
F183.98827861050862
s(I0
I0
I0
I0
I0
I0
I0
I0
I0
I0
I0
I0
I0
I0
I0
I2
I2
I3
I5
I5
tp38
F182.77703047721047
s(I0
I0
I0
I0
I0
I0
I0
I0
I0
I0
I0
I0
I0
I0
I0
I2
I4
I4
I4
I4
tp39
F193.22574201743842
s(I0
I0
I0
I0
I0
I0
I0
I0
I0
I0
I0
I0
I0
I0
I0
I1
I2
I3
I3
I6
tp40
F181.50312970589695
s(I0
I0
I0
I0
I0
I0
I0
I0
I0
I0
I0
I0
I0
I0
I0
I1
I1
I2
I2
I6
tp41
F181.38558196960744
s(I0
I0
I0
I0
I0
I0
I0
I0
I0
I0
I0
I0
I0
I0
I0
I3
I4
I4
I4
I4
tp42
F193.22574201743842
s(I0
I0
I0
I0
I0
I0
I0
I0
I0
I0
I0
I0
I0
I0
I0
I3
I5
I5
I6
I6
tp43
F186.98827861050864
s(I0
I0
I0
I0
I0
I0
I0
I0
I0
I0
I0
I0
I0
I0
I0
I1
I1
I1
I6
I6
tp44
F190.97302284744444
s(I0
I0
I0
I0
I0
I0
I0
I0
I0
I0
I0
I0
I0
I0
I0
I1
I2
I2
I5
I6
tp45
F181.8376271425904
s(I0
I0
I0
I0
I0
I0
I0
I0
I0
I0
I0
I0
I0
I0
I0
I1
I4
I4
I4
I6
tp46
F185.9221221633605
s(I0
I0
I0
I0
I0
I0
I0
I0
I0
I0
I0
I0
I0
I0
I0
I1
I1
I1
I2
I2
tp47
F190.97302284744444
s(I0
I0
I0
I0
I0
I0
I0
I0
I0
I0
I0
I0
I0
I0
I0
I4
I4
I4
I5
I6
tp48
F188.23533976400518
s(I0
I0
I0
I0
I0
I0
I0
I0
I0
I0
I0
I0
I0
I0
I0
I1
I3
I3
I3
I4
tp49
F184.50312970589695
s(I0
I0
I0
I0
I0
I0
I0
I0
I0
I0
I0
I0
I0
I0
I0
I2
I2
I5
I5
I5
tp50
F190.97302284744444
s(I0
I0
I0
I0
I0
I0
I0
I0
I0
I0
I0
I0
I0
I0
I0
I2
I4
I4
I5
I6
tp51
F182.98827861050862
s(I0
I0
I0
I0
I0
I0
I0
I0
I0
I0
I0
I0
I0
I0
I0
I1
I2
I2
I4
I5
tp52
F181.95184320066394
s(I0
I0
I0
I0
I0
I0
I0
I0
I0
I0
I0
I0
I0
I0
I0
I3
I3
I3
I6
I6
tp53
F190.97302284744444
s(I0
I0
I0
I0
I0
I0
I0
I0
I0
I0
I0
I0
I0
I0
I0
I2
I3
I4
I5
I6
tp54
F200.15689301420988
s(I0
I0
I0
I0
I0
I0
I0
I0
I0
I0
I0
I0
I0
I0
I0
I2
I3
I6
I6
I6
tp55
F189.51174254554184
s(I0
I0
I0
I0
I0
I0
I0
I0
I0
I0
I0
I0
I0
I0
I0
I3
I3
I3
I4
I6
tp56
F184.50312970589695
s(I0
I0
I0
I0
I0
I0
I0
I0
I0
I0
I0
I0
I0
I0
I0
I1
I1
I4
I4
I4
tp57
F190.97302284744444
s(I0
I0
I0
I0
I0
I0
I0
I0
I0
I0
I0
I0
I0
I0
I0
I1
I2
I2
I2
I6
tp58
F183.0322978601304
s(I0
I0
I0
I0
I0
I0
I0
I0
I0
I0
I0
I0
I0
I0
I0
I1
I1
I3
I3
I6
tp59
F181.50312970589695
s(I0
I0
I0
I0
I0
I0
I0
I0
I0
I0
I0
I0
I0
I0
I0
I5
I5
I5
I6
I6
tp60
F192.23533976400515
s(I0
I0
I0
I0
I0
I0
I0
I0
I0
I0
I0
I0
I0
I0
I0
I2
I2
I3
I4
I4
tp61
F182.9206692759936
s(I0
I0
I0
I0
I0
I0
I0
I0
I0
I0
I0
I0
I0
I0
I0
I1
I1
I1
I3
I6
tp62
F181.38558196960744
s(I0
I0
I0
I0
I0
I0
I0
I0
I0
I0
I0
I0
I0
I0
I0
I2
I4
I5
I6
I6
tp63
F184.98827861050862
s(I0
I0
I0
I0
I0
I0
I0
I0
I0
I0
I0
I0
I0
I0
I0
I1
I2
I2
I3
I4
tp64
F186.71127021579807
s(I0
I0
I0
I0
I0
I0
I0
I0
I0
I0
I0
I0
I0
I0
I0
I1
I5
I6
I6
I6
tp65
F189.51174254554184
s(I0
I0
I0
I0
I0
I0
I0
I0
I0
I0
I0
I0
I0
I0
I0
I2
I5
I6
I6
I6
tp66
F190.23533976400515
s(I0
I0
I0
I0
I0
I0
I0
I0
I0
I0
I0
I0
I0
I0
I0
I1
I4
I6
I6
I6
tp67
F189.51174254554184
s(I0
I0
I0
I0
I0
I0
I0
I0
I0
I0
I0
I0
I0
I0
I0
I2
I2
I2
I3
I6
tp68
F183.0322978601304
s(I0
I0
I0
I0
I0
I0
I0
I0
I0
I0
I0
I0
I0
I0
I0
I1
I2
I5
I6
I6
tp69
F183.90109684549563
s(I0
I0
I0
I0
I0
I0
I0
I0
I0
I0
I0
I0
I0
I0
I0
I3
I5
I6
I6
I6
tp70
F191.23533976400515
s(I0
I0
I0
I0
I0
I0
I0
I0
I0
I0
I0
I0
I0
I0
I0
I1
I3
I4
I4
I4
tp71
F185.9221221633605
s(I0
I0
I0
I0
I0
I0
I0
I0
I0
I0
I0
I0
I0
I0
I0
I2
I4
I4
I4
I5
tp72
F185.9221221633605
s(I0
I0
I0
I0
I0
I0
I0
I0
I0
I0
I0
I0
I0
I0
I0
I1
I2
I3
I3
I5
tp73
F181.5949226654654
s(I0
I0
I0
I0
I0
I0
I0
I0
I0
I0
I0
I0
I0
I0
I0
I1
I3
I3
I6
I6
tp74
F183.90109684549563
s(I0
I0
I0
I0
I0
I0
I0
I0
I0
I0
I0
I0
I0
I0
I0
I2
I2
I4
I5
I5
tp75
F182.77703047721047
s(I0
I0
I0
I0
I0
I0
I0
I0
I0
I0
I0
I0
I0
I0
I0
I4
I5
I5
I5
I6
tp76
F190.23533976400515
s(I0
I0
I0
I0
I0
I0
I0
I0
I0
I0
I0
I0
I0
I0
I0
I1
I1
I1
I2
I5
tp77
F181.43712831439052
s(I0
I0
I0
I0
I0
I0
I0
I0
I0
I0
I0
I0
I0
I0
I0
I3
I3
I4
I4
I4
tp78
F190.97302284744444
s(I0
I0
I0
I0
I0
I0
I0
I0
I0
I0
I0
I0
I0
I0
I0
I3
I3
I3
I3
I6
tp79
F191.0692318378171
s(I0
I0
I0
I0
I0
I0
I0
I0
I0
I0
I0
I0
I0
I0
I0
I1
I3
I3
I3
I5
tp80
F184.50312970589695
s(I0
I0
I0
I0
I0
I0
I0
I0
I0
I0
I0
I0
I0
I0
I0
I2
I2
I5
I5
I6
tp81
F182.8273593958525
s(I0
I0
I0
I0
I0
I0
I0
I0
I0
I0
I0
I0
I0
I0
I0
I1
I1
I1
I4
I6
tp82
F181.45654799731244
s(I0
I0
I0
I0
I0
I0
I0
I0
I0
I0
I0
I0
I0
I0
I0
I3
I3
I4
I5
I5
tp83
F183.08919477075858
s(I0
I0
I0
I0
I0
I0
I0
I0
I0
I0
I0
I0
I0
I0
I0
I1
I4
I4
I6
I6
tp84
F183.90109684549563
s(I0
I0
I0
I0
I0
I0
I0
I0
I0
I0
I0
I0
I0
I0
I0
I1
I1
I2
I4
I4
tp85
F181.92212216336057
s(I0
I0
I0
I0
I0
I0
I0
I0
I0
I0
I0
I0
I0
I0
I0
I2
I4
I4
I4
I6
tp86
F185.9221221633605
s(I0
I0
I0
I0
I0
I0
I0
I0
I0
I0
I0
I0
I0
I0
I0
I1
I1
I5
I6
I6
tp87
F183.90109684549563
s(I0
I0
I0
I0
I0
I0
I0
I0
I0
I0
I0
I0
I0
I0
I0
I2
I2
I2
I2
I2
tp88
F221.7156243769086
s(I0
I0
I0
I0
I0
I0
I0
I0
I0
I0
I0
I0
I0
I0
I0
I1
I2
I2
I4
I4
tp89
F181.92212216336057
s(I0
I0
I0
I0
I0
I0
I0
I0
I0
I0
I0
I0
I0
I0
I0
I2
I3
I5
I5
I5
tp90
F187.45257228850062
s(I0
I0
I0
I0
I0
I0
I0
I0
I0
I0
I0
I0
I0
I0
I0
I3
I5
I5
I5
I5
tp91
F195.61843728597628
s(I0
I0
I0
I0
I0
I0
I0
I0
I0
I0
I0
I0
I0
I0
I0
I1
I1
I4
I4
I5
tp92
F181.92212216336057
s(I0
I0
I0
I0
I0
I0
I0
I0
I0
I0
I0
I0
I0
I0
I0
I1
I2
I2
I2
I5
tp93
F183.0322978601304
s(I0
I0
I0
I0
I0
I0
I0
I0
I0
I0
I0
I0
I0
I0
I0
I4
I4
I4
I5
I5
tp94
F190.97302284744444
s(I0
I0
I0
I0
I0
I0
I0
I0
I0
I0
I0
I0
I0
I0
I0
I1
I3
I4
I5
I5
tp95
F183.08919477075858
s(I0
I0
I0
I0
I0
I0
I0
I0
I0
I0
I0
I0
I0
I0
I0
I1
I1
I1
I1
I1
tp96
F221.7156243769086
s(I0
I0
I0
I0
I0
I0
I0
I0
I0
I0
I0
I0
I0
I0
I0
I4
I4
I4
I4
I5
tp97
F193.22574201743842
s(I0
I0
I0
I0
I0
I0
I0
I0
I0
I0
I0
I0
I0
I0
I0
I1
I3
I3
I5
I5
tp98
F182.77703047721047
s(I0
I0
I0
I0
I0
I0
I0
I0
I0
I0
I0
I0
I0
I0
I0
I2
I4
I5
I5
I5
tp99
F187.45257228850062
s(I0
I0
I0
I0
I0
I0
I0
I0
I0
I0
I0
I0
I0
I0
I0
I2
I2
I4
I6
I6
tp100
F183.90109684549563
s(I0
I0
I0
I0
I0
I0
I0
I0
I0
I0
I0
I0
I0
I0
I0
I1
I3
I4
I4
I5
tp101
F183.08919477075858
s(I0
I0
I0
I0
I0
I0
I0
I0
I0
I0
I0
I0
I0
I0
I0
I1
I2
I3
I3
I4
tp102
F186.71127021579807
s(I0
I0
I0
I0
I0
I0
I0
I0
I0
I0
I0
I0
I0
I0
I0
I1
I1
I2
I2
I4
tp103
F181.38752397663634
s(I0
I0
I0
I0
I0
I0
I0
I0
I0
I0
I0
I0
I0
I0
I0
I1
I1
I1
I1
I6
tp104
F186.88334624634234
s(I0
I0
I0
I0
I0
I0
I0
I0
I0
I0
I0
I0
I0
I0
I0
I3
I3
I5
I6
I6
tp105
F184.98827861050862
s(I0
I0
I0
I0
I0
I0
I0
I0
I0
I0
I0
I0
I0
I0
I0
I1
I1
I4
I5
I6
tp106
F182.52170150034422
s(I0
I0
I0
I0
I0
I0
I0
I0
I0
I0
I0
I0
I0
I0
I0
I2
I2
I6
I6
I6
tp107
F190.97302284744444
s(I0
I0
I0
I0
I0
I0
I0
I0
I0
I0
I0
I0
I0
I0
I0
I2
I3
I3
I5
I6
tp108
F181.8376271425904
s(I0
I0
I0
I0
I0
I0
I0
I0
I0
I0
I0
I0
I0
I0
I0
I3
I4
I4
I5
I5
tp109
F183.08919477075858
s(I0
I0
I0
I0
I0
I0
I0
I0
I0
I0
I0
I0
I0
I0
I0
I2
I3
I5
I5
I6
tp110
F182.98827861050862
s(I0
I0
I0
I0
I0
I0
I0
I0
I0
I0
I0
I0
I0
I0
I0
I2
I2
I2
I6
I6
tp111
F190.97302284744444
s(I0
I0
I0
I0
I0
I0
I0
I0
I0
I0
I0
I0
I0
I0
I0
I1
I1
I1
I2
I4
tp112
F181.38752397663634
s(I0
I0
I0
I0
I0
I0
I0
I0
I0
I0
I0
I0
I0
I0
I0
I3
I3
I4
I4
I5
tp113
F183.08919477075858
s(I0
I0
I0
I0
I0
I0
I0
I0
I0
I0
I0
I0
I0
I0
I0
I1
I1
I2
I5
I5
tp114
F182.77703047721047
s(I0
I0
I0
I0
I0
I0
I0
I0
I0
I0
I0
I0
I0
I0
I0
I1
I3
I3
I3
I6
tp115
F184.50312970589695
s(I0
I0
I0
I0
I0
I0
I0
I0
I0
I0
I0
I0
I0
I0
I0
I1
I3
I3
I4
I6
tp116
F181.78706529698107
s(I0
I0
I0
I0
I0
I0
I0
I0
I0
I0
I0
I0
I0
I0
I0
I2
I3
I3
I3
I4
tp117
F184.50312970589695
s(I0
I0
I0
I0
I0
I0
I0
I0
I0
I0
I0
I0
I0
I0
I0
I1
I1
I5
I5
I5
tp118
F190.97302284744444
s(I0
I0
I0
I0
I0
I0
I0
I0
I0
I0
I0
I0
I0
I0
I0
I1
I1
I1
I4
I5
tp119
F181.87815781537566
s(I0
I0
I0
I0
I0
I0
I0
I0
I0
I0
I0
I0
I0
I0
I0
I1
I1
I5
I5
I6
tp120
F182.8273593958525
s(I0
I0
I0
I0
I0
I0
I0
I0
I0
I0
I0
I0
I0
I0
I0
I2
I4
I4
I5
I5
tp121
F182.77703047721047
s(I0
I0
I0
I0
I0
I0
I0
I0
I0
I0
I0
I0
I0
I0
I0
I1
I1
I2
I4
I5
tp122
F181.95184320066394
s(I0
I0
I0
I0
I0
I0
I0
I0
I0
I0
I0
I0
I0
I0
I0
I3
I4
I5
I5
I5
tp123
F187.45257228850062
s(I0
I0
I0
I0
I0
I0
I0
I0
I0
I0
I0
I0
I0
I0
I0
I1
I1
I1
I5
I5
tp124
F190.97302284744444
s(I0
I0
I0
I0
I0
I0
I0
I0
I0
I0
I0
I0
I0
I0
I0
I4
I4
I5
I5
I5
tp125
F190.97302284744444
s(I0
I0
I0
I0
I0
I0
I0
I0
I0
I0
I0
I0
I0
I0
I0
I3
I5
I5
I5
I6
tp126
F189.23533976400515
s(I0
I0
I0
I0
I0
I0
I0
I0
I0
I0
I0
I0
I0
I0
I0
I5
I6
I6
I6
I6
tp127
F199.8544314893928
s(I0
I0
I0
I0
I0
I0
I0
I0
I0
I0
I0
I0
I0
I0
I0
I1
I3
I5
I5
I5
tp128
F187.45257228850062
s(I0
I0
I0
I0
I0
I0
I0
I0
I0
I0
I0
I0
I0
I0
I0
I2
I3
I3
I4
I4
tp129
F182.9206692759936
s(I0
I0
I0
I0
I0
I0
I0
I0
I0
I0
I0
I0
I0
I0
I0
I1
I2
I2
I2
I4
tp130
F183.0322978601304
s(I0
I0
I0
I0
I0
I0
I0
I0
I0
I0
I0
I0
I0
I0
I0
I1
I1
I3
I3
I4
tp131
F181.78706529698107
s(I0
I0
I0
I0
I0
I0
I0
I0
I0
I0
I0
I0
I0
I0
I0
I2
I2
I2
I2
I4
tp132
F189.19421586710746
s(I0
I0
I0
I0
I0
I0
I0
I0
I0
I0
I0
I0
I0
I0
I0
I2
I3
I4
I6
I6
tp133
F183.90109684549563
s(I0
I0
I0
I0
I0
I0
I0
I0
I0
I0
I0
I0
I0
I0
I0
I2
I4
I5
I5
I6
tp134
F183.98827861050862
s(I0
I0
I0
I0
I0
I0
I0
I0
I0
I0
I0
I0
I0
I0
I0
I3
I3
I4
I5
I6
tp135
F186.71127021579807
s(I0
I0
I0
I0
I0
I0
I0
I0
I0
I0
I0
I0
I0
I0
I0
I3
I4
I4
I5
I6
tp136
F186.71127021579807
s(I0
I0
I0
I0
I0
I0
I0
I0
I0
I0
I0
I0
I0
I0
I0
I1
I2
I3
I5
I6
tp137
F181.8376271425904
s(I0
I0
I0
I0
I0
I0
I0
I0
I0
I0
I0
I0
I0
I0
I0
I4
I4
I4
I4
I6
tp138
F193.22574201743842
s(I0
I0
I0
I0
I0
I0
I0
I0
I0
I0
I0
I0
I0
I0
I0
I1
I2
I4
I5
I6
tp139
F182.52170150034422
s(I0
I0
I0
I0
I0
I0
I0
I0
I0
I0
I0
I0
I0
I0
I0
I3
I3
I5
I5
I5
tp140
F190.97302284744444
s(I0
I0
I0
I0
I0
I0
I0
I0
I0
I0
I0
I0
I0
I0
I0
I1
I2
I2
I3
I5
tp141
F181.5949226654654
s(I0
I0
I0
I0
I0
I0
I0
I0
I0
I0
I0
I0
I0
I0
I0
I1
I4
I4
I5
I5
tp142
F182.77703047721047
s(I0
I0
I0
I0
I0
I0
I0
I0
I0
I0
I0
I0
I0
I0
I0
I1
I1
I3
I4
I5
tp143
F183.08919477075858
s(I0
I0
I0
I0
I0
I0
I0
I0
I0
I0
I0
I0
I0
I0
I0
I1
I3
I4
I4
I6
tp144
F181.92212216336057
s(I0
I0
I0
I0
I0
I0
I0
I0
I0
I0
I0
I0
I0
I0
I0
I1
I2
I3
I3
I3
tp145
F184.50312970589695
s(I0
I0
I0
I0
I0
I0
I0
I0
I0
I0
I0
I0
I0
I0
I0
I1
I1
I2
I2
I5
tp146
F181.43712831439052
s(I0
I0
I0
I0
I0
I0
I0
I0
I0
I0
I0
I0
I0
I0
I0
I1
I2
I2
I3
I3
tp147
F181.50312970589695
s(I0
I0
I0
I0
I0
I0
I0
I0
I0
I0
I0
I0
I0
I0
I0
I2
I5
I5
I5
I5
tp148
F195.61843728597628
s(I0
I0
I0
I0
I0
I0
I0
I0
I0
I0
I0
I0
I0
I0
I0
I1
I1
I4
I5
I5
tp149
F182.77703047721047
s(I0
I0
I0
I0
I0
I0
I0
I0
I0
I0
I0
I0
I0
I0
I0
I1
I1
I3
I5
I5
tp150
F182.77703047721047
s(I0
I0
I0
I0
I0
I0
I0
I0
I0
I0
I0
I0
I0
I0
I0
I2
I2
I4
I4
I6
tp151
F181.92212216336057
s(I0
I0
I0
I0
I0
I0
I0
I0
I0
I0
I0
I0
I0
I0
I0
I2
I2
I2
I3
I3
tp152
F190.97302284744444
s(I0
I0
I0
I0
I0
I0
I0
I0
I0
I0
I0
I0
I0
I0
I0
I2
I2
I3
I3
I3
tp153
F190.97302284744444
s(I0
I0
I0
I0
I0
I0
I0
I0
I0
I0
I0
I0
I0
I0
I0
I3
I3
I3
I3
I4
tp154
F191.0692318378171
s(I0
I0
I0
I0
I0
I0
I0
I0
I0
I0
I0
I0
I0
I0
I0
I4
I5
I6
I6
I6
tp155
F192.23533976400515
s(I0
I0
I0
I0
I0
I0
I0
I0
I0
I0
I0
I0
I0
I0
I0
I1
I2
I3
I6
I6
tp156
F183.90109684549563
s(I0
I0
I0
I0
I0
I0
I0
I0
I0
I0
I0
I0
I0
I0
I0
I1
I3
I3
I4
I5
tp157
F183.08919477075858
s(I0
I0
I0
I0
I0
I0
I0
I0
I0
I0
I0
I0
I0
I0
I0
I1
I6
I6
I6
I6
tp158
F198.26514928156683
s(I0
I0
I0
I0
I0
I0
I0
I0
I0
I0
I0
I0
I0
I0
I0
I1
I1
I1
I4
I4
tp159
F190.97302284744444
s(I0
I0
I0
I0
I0
I0
I0
I0
I0
I0
I0
I0
I0
I0
I0
I1
I2
I6
I6
I6
tp160
F189.51174254554184
s(I0
I0
I0
I0
I0
I0
I0
I0
I0
I0
I0
I0
I0
I0
I0
I2
I2
I3
I3
I4
tp161
F182.9206692759936
s(I0
I0
I0
I0
I0
I0
I0
I0
I0
I0
I0
I0
I0
I0
I0
I1
I1
I2
I4
I6
tp162
F181.45654799731244
s(I0
I0
I0
I0
I0
I0
I0
I0
I0
I0
I0
I0
I0
I0
I0
I1
I1
I2
I3
I6
tp163
F181.38558196960744
s(I0
I0
I0
I0
I0
I0
I0
I0
I0
I0
I0
I0
I0
I0
I0
I2
I2
I2
I4
I6
tp164
F183.0322978601304
s(I0
I0
I0
I0
I0
I0
I0
I0
I0
I0
I0
I0
I0
I0
I0
I1
I2
I4
I6
I6
tp165
F183.90109684549563
s(I0
I0
I0
I0
I0
I0
I0
I0
I0
I0
I0
I0
I0
I0
I0
I2
I3
I3
I5
I5
tp166
F182.77703047721047
s(I0
I0
I0
I0
I0
I0
I0
I0
I0
I0
I0
I0
I0
I0
I0
I1
I2
I2
I4
I6
tp167
F181.45654799731244
s(I0
I0
I0
I0
I0
I0
I0
I0
I0
I0
I0
I0
I0
I0
I0
I4
I4
I5
I5
I6
tp168
F185.98827861050862
s(I0
I0
I0
I0
I0
I0
I0
I0
I0
I0
I0
I0
I0
I0
I0
I6
I6
I6
I6
I6
tp169
F221.7156243769086
s(I0
I0
I0
I0
I0
I0
I0
I0
I0
I0
I0
I0
I0
I0
I0
I2
I3
I4
I5
I5
tp170
F187.79918235827574
s(I0
I0
I0
I0
I0
I0
I0
I0
I0
I0
I0
I0
I0
I0
I0
I1
I3
I5
I5
I6
tp171
F182.8273593958525
s(I0
I0
I0
I0
I0
I0
I0
I0
I0
I0
I0
I0
I0
I0
I0
I2
I3
I3
I4
I5
tp172
F187.79918235827574
s(I0
I0
I0
I0
I0
I0
I0
I0
I0
I0
I0
I0
I0
I0
I0
I1
I2
I2
I2
I3
tp173
F183.0322978601304
s(I0
I0
I0
I0
I0
I0
I0
I0
I0
I0
I0
I0
I0
I0
I0
I1
I1
I3
I3
I5
tp174
F181.50312970589695
s(I0
I0
I0
I0
I0
I0
I0
I0
I0
I0
I0
I0
I0
I0
I0
I1
I5
I5
I5
I6
tp175
F187.45257228850062
s(I0
I0
I0
I0
I0
I0
I0
I0
I0
I0
I0
I0
I0
I0
I0
I2
I2
I2
I2
I5
tp176
F189.19421586710746
s(I0
I0
I0
I0
I0
I0
I0
I0
I0
I0
I0
I0
I0
I0
I0
I5
I5
I6
I6
I6
tp177
F193.23533976400515
s(I0
I0
I0
I0
I0
I0
I0
I0
I0
I0
I0
I0
I0
I0
I0
I2
I4
I6
I6
I6
tp178
F189.51174254554184
s(I0
I0
I0
I0
I0
I0
I0
I0
I0
I0
I0
I0
I0
I0
I0
I3
I4
I6
I6
I6
tp179
F190.23533976400515
s(I0
I0
I0
I0
I0
I0
I0
I0
I0
I0
I0
I0
I0
I0
I0
I1
I4
I4
I5
I6
tp180
F182.52170150034422
s(I0
I0
I0
I0
I0
I0
I0
I0
I0
I0
I0
I0
I0
I0
I0
I1
I1
I3
I4
I4
tp181
F181.92212216336057
s(I0
I0
I0
I0
I0
I0
I0
I0
I0
I0
I0
I0
I0
I0
I0
I3
I4
I4
I6
I6
tp182
F184.98827861050862
s(I0
I0
I0
I0
I0
I0
I0
I0
I0
I0
I0
I0
I0
I0
I0
I2
I3
I4
I4
I6
tp183
F182.9206692759936
s(I0
I0
I0
I0
I0
I0
I0
I0
I0
I0
I0
I0
I0
I0
I0
I1
I1
I2
I2
I2
tp184
F190.97302284744444
s(I0
I0
I0
I0
I0
I0
I0
I0
I0
I0
I0
I0
I0
I0
I0
I1
I1
I1
I1
I4
tp185
F186.88334624634234
s(I0
I0
I0
I0
I0
I0
I0
I0
I0
I0
I0
I0
I0
I0
I0
I1
I2
I5
I5
I6
tp186
F182.8273593958525
s(I0
I0
I0
I0
I0
I0
I0
I0
I0
I0
I0
I0
I0
I0
I0
I2
I2
I4
I5
I6
tp187
F182.52170150034422
s(I0
I0
I0
I0
I0
I0
I0
I0
I0
I0
I0
I0
I0
I0
I0
I1
I1
I3
I5
I6
tp188
F181.8376271425904
s(I0
I0
I0
I0
I0
I0
I0
I0
I0
I0
I0
I0
I0
I0
I0
I2
I2
I3
I5
I6
tp189
F181.8376271425904
s(I0
I0
I0
I0
I0
I0
I0
I0
I0
I0
I0
I0
I0
I0
I0
I1
I1
I1
I2
I6
tp190
F181.38558196960744
s(I0
I0
I0
I0
I0
I0
I0
I0
I0
I0
I0
I0
I0
I0
I0
I4
I4
I6
I6
I6
tp191
F191.23533976400515
s(I0
I0
I0
I0
I0
I0
I0
I0
I0
I0
I0
I0
I0
I0
I0
I1
I3
I4
I6
I6
tp192
F183.90109684549563
s(I0
I0
I0
I0
I0
I0
I0
I0
I0
I0
I0
I0
I0
I0
I0
I3
I3
I3
I3
I5
tp193
F191.0692318378171
s(I0
I0
I0
I0
I0
I0
I0
I0
I0
I0
I0
I0
I0
I0
I0
I3
I6
I6
I6
I6
tp194
F198.26514928156683
s(I0
I0
I0
I0
I0
I0
I0
I0
I0
I0
I0
I0
I0
I0
I0
I4
I4
I4
I4
I4
tp195
F221.7156243769086
s(I0
I0
I0
I0
I0
I0
I0
I0
I0
I0
I0
I0
I0
I0
I0
I1
I3
I3
I4
I4
tp196
F181.92212216336057
s(I0
I0
I0
I0
I0
I0
I0
I0
I0
I0
I0
I0
I0
I0
I0
I1
I3
I6
I6
I6
tp197
F189.51174254554184
s(I0
I0
I0
I0
I0
I0
I0
I0
I0
I0
I0
I0
I0
I0
I0
I1
I4
I4
I4
I5
tp198
F185.9221221633605
s(I0
I0
I0
I0
I0
I0
I0
I0
I0
I0
I0
I0
I0
I0
I0
I2
I2
I3
I3
I5
tp199
F181.5949226654654
s(I0
I0
I0
I0
I0
I0
I0
I0
I0
I0
I0
I0
I0
I0
I0
I4
I6
I6
I6
I6
tp200
F198.85443148939277
s(I0
I0
I0
I0
I0
I0
I0
I0
I0
I0
I0
I0
I0
I0
I0
I1
I1
I2
I3
I5
tp201
F181.5949226654654
s(I0
I0
I0
I0
I0
I0
I0
I0
I0
I0
I0
I0
I0
I0
I0
I3
I3
I3
I4
I4
tp202
F190.97302284744444
s(I0
I0
I0
I0
I0
I0
I0
I0
I0
I0
I0
I0
I0
I0
I0
I1
I1
I6
I6
I6
tp203
F190.97302284744444
s(I0
I0
I0
I0
I0
I0
I0
I0
I0
I0
I0
I0
I0
I0
I0
I5
I5
I5
I5
I5
tp204
F221.7156243769086
s(I0
I0
I0
I0
I0
I0
I0
I0
I0
I0
I0
I0
I0
I0
I0
I3
I4
I5
I5
I6
tp205
F186.71127021579807
s(I0
I0
I0
I0
I0
I0
I0
I0
I0
I0
I0
I0
I0
I0
I0
I2
I4
I4
I6
I6
tp206
F183.98827861050862
s(I0
I0
I0
I0
I0
I0
I0
I0
I0
I0
I0
I0
I0
I0
I0
I1
I1
I4
I6
I6
tp207
F183.90109684549563
s(I0
I0
I0
I0
I0
I0
I0
I0
I0
I0
I0
I0
I0
I0
I0
I1
I2
I3
I4
I4
tp208
F186.71127021579807
s(I0
I0
I0
I0
I0
I0
I0
I0
I0
I0
I0
I0
I0
I0
I0
I2
I3
I3
I4
I6
tp209
F182.9206692759936
s(I0
I0
I0
I0
I0
I0
I0
I0
I0
I0
I0
I0
I0
I0
I0
I1
I2
I2
I2
I2
tp210
F189.19421586710746
s(I0
I0
I0
I0
I0
I0
I0
I0
I0
I0
I0
I0
I0
I0
I0
I1
I1
I2
I6
I6
tp211
F183.90109684549563
s(I0
I0
I0
I0
I0
I0
I0
I0
I0
I0
I0
I0
I0
I0
I0
I2
I2
I3
I6
I6
tp212
F183.90109684549563
s(I0
I0
I0
I0
I0
I0
I0
I0
I0
I0
I0
I0
I0
I0
I0
I2
I2
I2
I2
I6
tp213
F189.19421586710746
s(I0
I0
I0
I0
I0
I0
I0
I0
I0
I0
I0
I0
I0
I0
I0
I1
I2
I4
I4
I6
tp214
F181.92212216336057
s(I0
I0
I0
I0
I0
I0
I0
I0
I0
I0
I0
I0
I0
I0
I0
I1
I2
I2
I6
I6
tp215
F183.90109684549563
s(I0
I0
I0
I0
I0
I0
I0
I0
I0
I0
I0
I0
I0
I0
I0
I1
I3
I4
I5
I6
tp216
F186.71127021579807
s(I0
I0
I0
I0
I0
I0
I0
I0
I0
I0
I0
I0
I0
I0
I0
I5
I5
I5
I5
I6
tp217
F196.85443148939277
s(I0
I0
I0
I0
I0
I0
I0
I0
I0
I0
I0
I0
I0
I0
I0
I2
I2
I3
I4
I5
tp218
F187.79918235827574
s(I0
I0
I0
I0
I0
I0
I0
I0
I0
I0
I0
I0
I0
I0
I0
I4
I5
I5
I5
I5
tp219
F195.61843728597628
s(I0
I0
I0
I0
I0
I0
I0
I0
I0
I0
I0
I0
I0
I0
I0
I2
I3
I4
I4
I5
tp220
F187.79918235827574
s(I0
I0
I0
I0
I0
I0
I0
I0
I0
I0
I0
I0
I0
I0
I0
I1
I1
I2
I2
I3
tp221
F181.03229786013043
s(I0
I0
I0
I0
I0
I0
I0
I0
I0
I0
I0
I0
I0
I0
I0
I1
I1
I1
I1
I5
tp222
F186.88334624634234
s(I0
I0
I0
I0
I0
I0
I0
I0
I0
I0
I0
I0
I0
I0
I0
I1
I2
I5
I5
I5
tp223
F187.45257228850062
s(I0
I0
I0
I0
I0
I0
I0
I0
I0
I0
I0
I0
I0
I0
I0
I3
I3
I6
I6
I6
tp224
F190.97302284744444
s(I0
I0
I0
I0
I0
I0
I0
I0
I0
I0
I0
I0
I0
I0
I0
I2
I2
I2
I3
I5
tp225
F183.0322978601304
s(I0
I0
I0
I0
I0
I0
I0
I0
I0
I0
I0
I0
I0
I0
I0
I3
I3
I4
I6
I6
tp226
F183.98827861050862
s(I0
I0
I0
I0
I0
I0
I0
I0
I0
I0
I0
I0
I0
I0
I0
I1
I4
I5
I6
I6
tp227
F183.98827861050862
s(I0
I0
I0
I0
I0
I0
I0
I0
I0
I0
I0
I0
I0
I0
I0
I3
I4
I4
I4
I6
tp228
F186.23533976400518
s(I0
I0
I0
I0
I0
I0
I0
I0
I0
I0
I0
I0
I0
I0
I0
I1
I1
I2
I5
I6
tp229
F181.8376271425904
s(I0
I0
I0
I0
I0
I0
I0
I0
I0
I0
I0
I0
I0
I0
I0
I2
I2
I2
I5
I6
tp230
F183.0322978601304
s(I0
I0
I0
I0
I0
I0
I0
I0
I0
I0
I0
I0
I0
I0
I0
I4
I4
I4
I6
I6
tp231
F190.97302284744444
s(I0
I0
I0
I0
I0
I0
I0
I0
I0
I0
I0
I0
I0
I0
I0
I1
I4
I4
I4
I4
tp232
F193.22574201743842
s(I0
I0
I0
I0
I0
I0
I0
I0
I0
I0
I0
I0
I0
I0
I0
I2
I2
I3
I3
I6
tp233
F181.50312970589695
s(I0
I0
I0
I0
I0
I0
I0
I0
I0
I0
I0
I0
I0
I0
I0
I1
I1
I2
I3
I4
tp234
F186.71127021579807
s(I0
I0
I0
I0
I0
I0
I0
I0
I0
I0
I0
I0
I0
I0
I0
I2
I2
I2
I4
I4
tp235
F190.97302284744444
s(I0
I0
I0
I0
I0
I0
I0
I0
I0
I0
I0
I0
I0
I0
I0
I2
I5
I5
I6
I6
tp236
F185.98827861050862
s(I0
I0
I0
I0
I0
I0
I0
I0
I0
I0
I0
I0
I0
I0
I0
I1
I5
I5
I6
I6
tp237
F184.98827861050862
s(I0
I0
I0
I0
I0
I0
I0
I0
I0
I0
I0
I0
I0
I0
I0
I2
I2
I4
I4
I4
tp238
F190.97302284744444
s(I0
I0
I0
I0
I0
I0
I0
I0
I0
I0
I0
I0
I0
I0
I0
I2
I3
I3
I3
I6
tp239
F184.50312970589695
s(I0
I0
I0
I0
I0
I0
I0
I0
I0
I0
I0
I0
I0
I0
I0
I3
I4
I5
I6
I6
tp240
F186.71127021579807
s(I0
I0
I0
I0
I0
I0
I0
I0
I0
I0
I0
I0
I0
I0
I0
I1
I5
I5
I5
I5
tp241
F195.61843728597628
s(I0
I0
I0
I0
I0
I0
I0
I0
I0
I0
I0
I0
I0
I0
I0
I1
I2
I3
I4
I5
tp242
F200.15689301420988
s(I0
I0
I0
I0
I0
I0
I0
I0
I0
I0
I0
I0
I0
I0
I0
I1
I1
I2
I3
I3
tp243
F181.50312970589695
s(I0
I0
I0
I0
I0
I0
I0
I0
I0
I0
I0
I0
I0
I0
I0
I2
I3
I3
I3
I5
tp244
F184.50312970589695
s(I0
I0
I0
I0
I0
I0
I0
I0
I0
I0
I0
I0
I0
I0
I0
I1
I1
I3
I3
I3
tp245
F190.97302284744444
s(I0
I0
I0
I0
I0
I0
I0
I0
I0
I0
I0
I0
I0
I0
I0
I1
I2
I4
I4
I5
tp246
F181.95184320066394
s(I0
I0
I0
I0
I0
I0
I0
I0
I0
I0
I0
I0
I0
I0
I0
I3
I3
I3
I4
I5
tp247
F184.50312970589695
s(I0
I0
I0
I0
I0
I0
I0
I0
I0
I0
I0
I0
I0
I0
I0
I1
I1
I1
I3
I3
tp248
F190.97302284744444
s(I0
I0
I0
I0
I0
I0
I0
I0
I0
I0
I0
I0
I0
I0
I0
I2
I3
I5
I6
I6
tp249
F183.98827861050862
s(I0
I0
I0
I0
I0
I0
I0
I0
I0
I0
I0
I0
I0
I0
I0
I1
I1
I4
I4
I6
tp250
F181.92212216336057
s(I0
I0
I0
I0
I0
I0
I0
I0
I0
I0
I0
I0
I0
I0
I0
I1
I2
I4
I5
I5
tp251
F182.77703047721047
s(I0
I0
I0
I0
I0
I0
I0
I0
I0
I0
I0
I0
I0
I0
I0
I2
I3
I3
I6
I6
tp252
F183.90109684549563
s.