(dp0
(I0
I0
I0
I0
I0
I0
I0
I0
I0
I0
I0
I0
I0
I0
I1
I2
I3
I4
I4
I4
tp1
(iyahtzee
RecordScore
p2
(dp3
S'_scoreName'
p4
S'Fours'
p5
sbs(I0
I0
I0
I0
I0
I0
I0
I0
I0
I0
I0
I0
I0
I0
I1
I2
I3
I3
I3
I6
tp6
(iyahtzee
RecordScore
p7
(dp8
g4
S'Threes'
p9
sbs(I0
I0
I0
I0
I0
I0
I0
I0
I0
I0
I0
I0
I0
I0
I1
I6
I6
I6
I6
I6
tp10
(iyahtzee
RecordScore
p11
(dp12
g4
S'Yahtzee'
p13
sbs(I0
I0
I0
I0
I0
I0
I0
I0
I0
I0
I0
I0
I0
I0
I1
I1
I2
I4
I4
I4
tp14
(iyahtzee
RecordScore
p15
(dp16
g4
g5
sbs(I0
I0
I0
I0
I0
I0
I0
I0
I0
I0
I0
I0
I0
I0
I1
I1
I1
I2
I2
I6
tp17
(iyahtzee
RecordScore
p18
(dp19
g4
S'Twos'
p20
sbs(I0
I0
I0
I0
I0
I0
I0
I0
I0
I0
I0
I0
I0
I0
I1
I1
I1
I3
I6
I6
tp21
(iyahtzee
Roll
p22
(dp23
S'_indices'
p24
(lp25
I0
aI1
aI2
asbs(I0
I0
I0
I0
I0
I0
I0
I0
I0
I0
I0
I0
I0
I0
I1
I3
I4
I4
I5
I6
tp26
(iyahtzee
RecordScore
p27
(dp28
g4
S'Small Straight'
p29
sbs(I0
I0
I0
I0
I0
I0
I0
I0
I0
I0
I0
I0
I0
I0
I1
I2
I3
I4
I5
I5
tp30
(iyahtzee
Roll
p31
(dp32
g24
(lp33
I3
asbs(I0
I0
I0
I0
I0
I0
I0
I0
I0
I0
I0
I0
I0
I0
I1
I1
I1
I1
I6
I6
tp34
(iyahtzee
RecordScore
p35
(dp36
g4
S'Full House'
p37
sbs(I0
I0
I0
I0
I0
I0
I0
I0
I0
I0
I0
I0
I0
I0
I1
I1
I1
I2
I3
I4
tp38
(iyahtzee
RecordScore
p39
(dp40
g4
g29
sbs(I0
I0
I0
I0
I0
I0
I0
I0
I0
I0
I0
I0
I0
I0
I1
I1
I6
I6
I6
I6
tp41
(iyahtzee
Roll
p42
(dp43
g24
(lp44
I0
asbs(I0
I0
I0
I0
I0
I0
I0
I0
I0
I0
I0
I0
I0
I0
I1
I4
I5
I5
I5
I5
tp45
(iyahtzee
RecordScore
p46
(dp47
g4
S'4 of a kind'
p48
sbs(I0
I0
I0
I0
I0
I0
I0
I0
I0
I0
I0
I0
I0
I0
I1
I1
I3
I4
I4
I6
tp49
(iyahtzee
RecordScore
p50
(dp51
g4
g5
sbs(I0
I0
I0
I0
I0
I0
I0
I0
I0
I0
I0
I0
I0
I0
I1
I2
I5
I5
I5
I5
tp52
(iyahtzee
Roll
p53
(dp54
g24
(lp55
I0
asbs(I0
I0
I0
I0
I0
I0
I0
I0
I0
I0
I0
I0
I0
I0
I1
I1
I1
I5
I6
I6
tp56
(iyahtzee
Roll
p57
(dp58
g24
(lp59
I0
aI1
asbs(I0
I0
I0
I0
I0
I0
I0
I0
I0
I0
I0
I0
I0
I0
I1
I3
I4
I5
I5
I5
tp60
(iyahtzee
RecordScore
p61
(dp62
g4
S'3 of a kind'
p63
sbs(I0
I0
I0
I0
I0
I0
I0
I0
I0
I0
I0
I0
I0
I0
I1
I1
I1
I3
I3
I5
tp64
(iyahtzee
RecordScore
p65
(dp66
g4
g9
sbs(I0
I0
I0
I0
I0
I0
I0
I0
I0
I0
I0
I0
I0
I0
I1
I1
I4
I5
I5
I5
tp67
(iyahtzee
RecordScore
p68
(dp69
g4
S'Fives'
p70
sbs(I0
I0
I0
I0
I0
I0
I0
I0
I0
I0
I0
I0
I0
I0
I1
I2
I2
I3
I3
I3
tp71
(iyahtzee
RecordScore
p72
(dp73
g4
g37
sbs(I0
I0
I0
I0
I0
I0
I0
I0
I0
I0
I0
I0
I0
I0
I1
I2
I2
I2
I3
I3
tp74
(iyahtzee
RecordScore
p75
(dp76
g4
g37
sbs(I0
I0
I0
I0
I0
I0
I0
I0
I0
I0
I0
I0
I0
I0
I1
I2
I4
I4
I5
I6
tp77
(iyahtzee
RecordScore
p78
(dp79
g4
S'Chance'
p80
sbs(I0
I0
I0
I0
I0
I0
I0
I0
I0
I0
I0
I0
I0
I0
I1
I1
I3
I3
I3
I3
tp81
(iyahtzee
Roll
p82
(dp83
g24
(lp84
I0
asbs(I0
I0
I0
I0
I0
I0
I0
I0
I0
I0
I0
I0
I0
I0
I1
I1
I1
I1
I2
I6
tp85
(iyahtzee
Roll
p86
(dp87
g24
(lp88
I0
aI1
aI2
aI3
asbs(I0
I0
I0
I0
I0
I0
I0
I0
I0
I0
I0
I0
I0
I0
I1
I1
I2
I3
I4
I5
tp89
(iyahtzee
RecordScore
p90
(dp91
g4
S'Large Straight'
p92
sbs(I0
I0
I0
I0
I0
I0
I0
I0
I0
I0
I0
I0
I0
I0
I1
I1
I4
I4
I4
I6
tp93
(iyahtzee
RecordScore
p94
(dp95
g4
g5
sbs(I0
I0
I0
I0
I0
I0
I0
I0
I0
I0
I0
I0
I0
I0
I1
I1
I1
I1
I1
I6
tp96
(iyahtzee
Roll
p97
(dp98
g24
(lp99
I4
asbs(I0
I0
I0
I0
I0
I0
I0
I0
I0
I0
I0
I0
I0
I0
I1
I1
I2
I2
I2
I5
tp100
(iyahtzee
RecordScore
p101
(dp102
g4
g20
sbs(I0
I0
I0
I0
I0
I0
I0
I0
I0
I0
I0
I0
I0
I0
I1
I2
I3
I5
I6
I6
tp103
(iyahtzee
RecordScore
p104
(dp105
g4
g80
sbs(I0
I0
I0
I0
I0
I0
I0
I0
I0
I0
I0
I0
I0
I0
I1
I1
I2
I4
I5
I5
tp106
(iyahtzee
Roll
p107
(dp108
g24
(lp109
I0
aI1
aI2
asbs(I0
I0
I0
I0
I0
I0
I0
I0
I0
I0
I0
I0
I0
I0
I1
I2
I2
I6
I6
I6
tp110
(iyahtzee
RecordScore
p111
(dp112
g4
g37
sbs(I0
I0
I0
I0
I0
I0
I0
I0
I0
I0
I0
I0
I0
I0
I1
I1
I1
I1
I2
I2
tp113
(iyahtzee
RecordScore
p114
(dp115
g4
g37
sbs(I0
I0
I0
I0
I0
I0
I0
I0
I0
I0
I0
I0
I0
I0
I1
I1
I3
I4
I6
I6
tp116
(iyahtzee
Roll
p117
(dp118
g24
(lp119
I0
aI1
aI2
asbs(I0
I0
I0
I0
I0
I0
I0
I0
I0
I0
I0
I0
I0
I0
I1
I1
I2
I3
I3
I6
tp120
(iyahtzee
RecordScore
p121
(dp122
g4
g9
sbs(I0
I0
I0
I0
I0
I0
I0
I0
I0
I0
I0
I0
I0
I0
I1
I1
I2
I5
I6
I6
tp123
(iyahtzee
Roll
p124
(dp125
g24
(lp126
I0
aI1
asbs(I0
I0
I0
I0
I0
I0
I0
I0
I0
I0
I0
I0
I0
I0
I1
I4
I4
I4
I5
I5
tp127
(iyahtzee
RecordScore
p128
(dp129
g4
g37
sbs(I0
I0
I0
I0
I0
I0
I0
I0
I0
I0
I0
I0
I0
I0
I1
I1
I1
I2
I4
I4
tp130
(iyahtzee
RecordScore
p131
(dp132
g4
g5
sbs(I0
I0
I0
I0
I0
I0
I0
I0
I0
I0
I0
I0
I0
I0
I1
I1
I3
I6
I6
I6
tp133
(iyahtzee
Roll
p134
(dp135
g24
(lp136
I0
aI1
asbs(I0
I0
I0
I0
I0
I0
I0
I0
I0
I0
I0
I0
I0
I0
I1
I1
I2
I4
I4
I5
tp137
(iyahtzee
RecordScore
p138
(dp139
g4
g5
sbs(I0
I0
I0
I0
I0
I0
I0
I0
I0
I0
I0
I0
I0
I0
I1
I1
I1
I2
I2
I5
tp140
(iyahtzee
RecordScore
p141
(dp142
g4
g20
sbs(I0
I0
I0
I0
I0
I0
I0
I0
I0
I0
I0
I0
I0
I0
I1
I2
I2
I2
I2
I3
tp143
(iyahtzee
Roll
p144
(dp145
g24
(lp146
I4
asbs(I0
I0
I0
I0
I0
I0
I0
I0
I0
I0
I0
I0
I0
I0
I1
I1
I4
I4
I5
I5
tp147
(iyahtzee
Roll
p148
(dp149
g24
(lp150
I0
aI1
aI2
asbs(I0
I0
I0
I0
I0
I0
I0
I0
I0
I0
I0
I0
I0
I0
I1
I1
I1
I2
I3
I5
tp151
(iyahtzee
Roll
p152
(dp153
g24
(lp154
I0
aI1
asbs(I0
I0
I0
I0
I0
I0
I0
I0
I0
I0
I0
I0
I0
I0
I1
I1
I3
I4
I5
I6
tp155
(iyahtzee
RecordScore
p156
(dp157
g4
g29
sbs(I0
I0
I0
I0
I0
I0
I0
I0
I0
I0
I0
I0
I0
I0
I1
I2
I5
I5
I5
I6
tp158
(iyahtzee
RecordScore
p159
(dp160
g4
g63
sbs(I0
I0
I0
I0
I0
I0
I0
I0
I0
I0
I0
I0
I0
I0
I1
I4
I6
I6
I6
I6
tp161
(iyahtzee
RecordScore
p162
(dp163
g4
g48
sbs(I0
I0
I0
I0
I0
I0
I0
I0
I0
I0
I0
I0
I0
I0
I1
I3
I3
I6
I6
I6
tp164
(iyahtzee
RecordScore
p165
(dp166
g4
g37
sbs(I0
I0
I0
I0
I0
I0
I0
I0
I0
I0
I0
I0
I0
I0
I1
I2
I3
I4
I5
I6
tp167
(iyahtzee
RecordScore
p168
(dp169
g4
g92
sbs(I0
I0
I0
I0
I0
I0
I0
I0
I0
I0
I0
I0
I0
I0
I1
I1
I2
I2
I2
I4
tp170
(iyahtzee
RecordScore
p171
(dp172
g4
g20
sbs(I0
I0
I0
I0
I0
I0
I0
I0
I0
I0
I0
I0
I0
I0
I1
I1
I1
I3
I3
I4
tp173
(iyahtzee
RecordScore
p174
(dp175
g4
g9
sbs(I0
I0
I0
I0
I0
I0
I0
I0
I0
I0
I0
I0
I0
I0
I1
I1
I4
I5
I5
I6
tp176
(iyahtzee
RecordScore
p177
(dp178
g4
g80
sbs(I0
I0
I0
I0
I0
I0
I0
I0
I0
I0
I0
I0
I0
I0
I1
I1
I1
I1
I4
I6
tp179
(iyahtzee
Roll
p180
(dp181
g24
(lp182
I0
aI1
aI2
asbs(I0
I0
I0
I0
I0
I0
I0
I0
I0
I0
I0
I0
I0
I0
I1
I3
I3
I4
I6
I6
tp183
(iyahtzee
RecordScore
p184
(dp185
g4
g80
sbs(I0
I0
I0
I0
I0
I0
I0
I0
I0
I0
I0
I0
I0
I0
I1
I1
I2
I4
I5
I6
tp186
(iyahtzee
Roll
p187
(dp188
g24
(lp189
I0
aI1
asbs(I0
I0
I0
I0
I0
I0
I0
I0
I0
I0
I0
I0
I0
I0
I1
I2
I2
I2
I3
I4
tp190
(iyahtzee
RecordScore
p191
(dp192
g4
g20
sbs(I0
I0
I0
I0
I0
I0
I0
I0
I0
I0
I0
I0
I0
I0
I1
I1
I3
I3
I4
I4
tp193
(iyahtzee
RecordScore
p194
(dp195
g4
g5
sbs(I0
I0
I0
I0
I0
I0
I0
I0
I0
I0
I0
I0
I0
I0
I1
I2
I3
I6
I6
I6
tp196
(iyahtzee
Roll
p197
(dp198
g24
(lp199
I0
aI1
asbs(I0
I0
I0
I0
I0
I0
I0
I0
I0
I0
I0
I0
I0
I0
I1
I2
I2
I3
I4
I4
tp200
(iyahtzee
Roll
p201
(dp202
g24
(lp203
I0
aI3
asbs(I0
I0
I0
I0
I0
I0
I0
I0
I0
I0
I0
I0
I0
I0
I1
I2
I3
I5
I5
I5
tp204
(iyahtzee
RecordScore
p205
(dp206
g4
g70
sbs(I0
I0
I0
I0
I0
I0
I0
I0
I0
I0
I0
I0
I0
I0
I1
I1
I2
I2
I5
I5
tp207
(iyahtzee
Roll
p208
(dp209
g24
(lp210
I0
aI1
aI2
asbs(I0
I0
I0
I0
I0
I0
I0
I0
I0
I0
I0
I0
I0
I0
I1
I1
I2
I2
I3
I5
tp211
(iyahtzee
Roll
p212
(dp213
g24
(lp214
I0
aI1
asbs(I0
I0
I0
I0
I0
I0
I0
I0
I0
I0
I0
I0
I0
I0
I1
I1
I2
I5
I5
I5
tp215
(iyahtzee
RecordScore
p216
(dp217
g4
g70
sbs(I0
I0
I0
I0
I0
I0
I0
I0
I0
I0
I0
I0
I0
I0
I1
I1
I1
I1
I1
I5
tp218
(iyahtzee
Roll
p219
(dp220
g24
(lp221
I4
asbs(I0
I0
I0
I0
I0
I0
I0
I0
I0
I0
I0
I0
I0
I0
I1
I3
I5
I5
I5
I5
tp222
(iyahtzee
Roll
p223
(dp224
g24
(lp225
I0
asbs(I0
I0
I0
I0
I0
I0
I0
I0
I0
I0
I0
I0
I0
I0
I1
I1
I1
I1
I2
I5
tp226
(iyahtzee
Roll
p227
(dp228
g24
(lp229
I0
aI1
aI2
aI3
asbs(I0
I0
I0
I0
I0
I0
I0
I0
I0
I0
I0
I0
I0
I0
I1
I1
I2
I2
I4
I5
tp230
(iyahtzee
Roll
p231
(dp232
g24
(lp233
I0
aI1
aI2
asbs(I0
I0
I0
I0
I0
I0
I0
I0
I0
I0
I0
I0
I0
I0
I1
I1
I1
I1
I2
I3
tp234
(iyahtzee
Roll
p235
(dp236
g24
(lp237
I0
aI1
aI2
aI3
asbs(I0
I0
I0
I0
I0
I0
I0
I0
I0
I0
I0
I0
I0
I0
I1
I2
I2
I3
I3
I4
tp238
(iyahtzee
Roll
p239
(dp240
g24
(lp241
I0
aI2
asbs(I0
I0
I0
I0
I0
I0
I0
I0
I0
I0
I0
I0
I0
I0
I1
I2
I3
I3
I3
I4
tp242
(iyahtzee
RecordScore
p243
(dp244
g4
g9
sbs(I0
I0
I0
I0
I0
I0
I0
I0
I0
I0
I0
I0
I0
I0
I1
I5
I5
I6
I6
I6
tp245
(iyahtzee
RecordScore
p246
(dp247
g4
g63
sbs(I0
I0
I0
I0
I0
I0
I0
I0
I0
I0
I0
I0
I0
I0
I1
I1
I4
I4
I6
I6
tp248
(iyahtzee
Roll
p249
(dp250
g24
(lp251
I0
aI1
aI2
asbs(I0
I0
I0
I0
I0
I0
I0
I0
I0
I0
I0
I0
I0
I0
I1
I3
I3
I5
I5
I6
tp252
(iyahtzee
RecordScore
p253
(dp254
g4
g80
sbs(I0
I0
I0
I0
I0
I0
I0
I0
I0
I0
I0
I0
I0
I0
I1
I1
I1
I2
I2
I4
tp255
(iyahtzee
RecordScore
p256
(dp257
g4
g20
sbs(I0
I0
I0
I0
I0
I0
I0
I0
I0
I0
I0
I0
I0
I0
I1
I1
I2
I3
I3
I4
tp258
(iyahtzee
RecordScore
p259
(dp260
g4
g29
sbs(I0
I0
I0
I0
I0
I0
I0
I0
I0
I0
I0
I0
I0
I0
I1
I2
I2
I2
I2
I2
tp261
(iyahtzee
RecordScore
p262
(dp263
g4
g13
sbs(I0
I0
I0
I0
I0
I0
I0
I0
I0
I0
I0
I0
I0
I0
I1
I1
I2
I5
I5
I6
tp264
(iyahtzee
Roll
p265
(dp266
g24
(lp267
I0
aI1
asbs(I0
I0
I0
I0
I0
I0
I0
I0
I0
I0
I0
I0
I0
I0
I1
I2
I3
I3
I4
I5
tp268
(iyahtzee
Roll
p269
(dp270
g24
(lp271
I1
asbs(I0
I0
I0
I0
I0
I0
I0
I0
I0
I0
I0
I0
I0
I0
I1
I1
I1
I3
I5
I6
tp272
(iyahtzee
Roll
p273
(dp274
g24
(lp275
I0
aI1
asbs(I0
I0
I0
I0
I0
I0
I0
I0
I0
I0
I0
I0
I0
I0
I1
I1
I5
I6
I6
I6
tp276
(iyahtzee
RecordScore
p277
(dp278
g4
g63
sbs(I0
I0
I0
I0
I0
I0
I0
I0
I0
I0
I0
I0
I0
I0
I1
I1
I1
I4
I5
I6
tp279
(iyahtzee
Roll
p280
(dp281
g24
(lp282
I0
aI1
asbs(I0
I0
I0
I0
I0
I0
I0
I0
I0
I0
I0
I0
I0
I0
I1
I3
I3
I4
I5
I5
tp283
(iyahtzee
Roll
p284
(dp285
g24
(lp286
I0
aI3
asbs(I0
I0
I0
I0
I0
I0
I0
I0
I0
I0
I0
I0
I0
I0
I1
I2
I2
I2
I2
I5
tp287
(iyahtzee
Roll
p288
(dp289
g24
(lp290
I4
asbs(I0
I0
I0
I0
I0
I0
I0
I0
I0
I0
I0
I0
I0
I0
I1
I3
I6
I6
I6
I6
tp291
(iyahtzee
RecordScore
p292
(dp293
g4
g48
sbs(I0
I0
I0
I0
I0
I0
I0
I0
I0
I0
I0
I0
I0
I0
I1
I2
I3
I3
I5
I5
tp294
(iyahtzee
Roll
p295
(dp296
g24
(lp297
I0
aI1
aI2
asbs(I0
I0
I0
I0
I0
I0
I0
I0
I0
I0
I0
I0
I0
I0
I1
I1
I1
I3
I3
I3
tp298
(iyahtzee
RecordScore
p299
(dp300
g4
g37
sbs(I0
I0
I0
I0
I0
I0
I0
I0
I0
I0
I0
I0
I0
I0
I1
I2
I2
I3
I4
I5
tp301
(iyahtzee
Roll
p302
(dp303
g24
(lp304
I0
asbs(I0
I0
I0
I0
I0
I0
I0
I0
I0
I0
I0
I0
I0
I0
I1
I1
I1
I2
I3
I3
tp305
(iyahtzee
RecordScore
p306
(dp307
g4
g9
sbs(I0
I0
I0
I0
I0
I0
I0
I0
I0
I0
I0
I0
I0
I0
I1
I4
I5
I6
I6
I6
tp308
(iyahtzee
RecordScore
p309
(dp310
g4
g63
sbs(I0
I0
I0
I0
I0
I0
I0
I0
I0
I0
I0
I0
I0
I0
I1
I1
I1
I1
I3
I3
tp311
(iyahtzee
RecordScore
p312
(dp313
g4
g37
sbs(I0
I0
I0
I0
I0
I0
I0
I0
I0
I0
I0
I0
I0
I0
I1
I2
I2
I2
I3
I5
tp314
(iyahtzee
RecordScore
p315
(dp316
g4
g20
sbs(I0
I0
I0
I0
I0
I0
I0
I0
I0
I0
I0
I0
I0
I0
I1
I1
I3
I3
I4
I5
tp317
(iyahtzee
Roll
p318
(dp319
g24
(lp320
I0
aI1
asbs(I0
I0
I0
I0
I0
I0
I0
I0
I0
I0
I0
I0
I0
I0
I1
I3
I4
I6
I6
I6
tp321
(iyahtzee
RecordScore
p322
(dp323
g4
g63
sbs(I0
I0
I0
I0
I0
I0
I0
I0
I0
I0
I0
I0
I0
I0
I1
I1
I1
I6
I6
I6
tp324
(iyahtzee
RecordScore
p325
(dp326
g4
g37
sbs(I0
I0
I0
I0
I0
I0
I0
I0
I0
I0
I0
I0
I0
I0
I1
I2
I4
I6
I6
I6
tp327
(iyahtzee
RecordScore
p328
(dp329
g4
g63
sbs(I0
I0
I0
I0
I0
I0
I0
I0
I0
I0
I0
I0
I0
I0
I1
I3
I4
I4
I6
I6
tp330
(iyahtzee
RecordScore
p331
(dp332
g4
g80
sbs(I0
I0
I0
I0
I0
I0
I0
I0
I0
I0
I0
I0
I0
I0
I1
I5
I5
I5
I5
I6
tp333
(iyahtzee
RecordScore
p334
(dp335
g4
g48
sbs(I0
I0
I0
I0
I0
I0
I0
I0
I0
I0
I0
I0
I0
I0
I1
I2
I4
I4
I6
I6
tp336
(iyahtzee
RecordScore
p337
(dp338
g4
g80
sbs(I0
I0
I0
I0
I0
I0
I0
I0
I0
I0
I0
I0
I0
I0
I1
I1
I1
I1
I3
I6
tp339
(iyahtzee
Roll
p340
(dp341
g24
(lp342
I0
aI1
aI2
aI3
asbs(I0
I0
I0
I0
I0
I0
I0
I0
I0
I0
I0
I0
I0
I0
I1
I3
I3
I4
I4
I6
tp343
(iyahtzee
RecordScore
p344
(dp345
g4
g80
sbs(I0
I0
I0
I0
I0
I0
I0
I0
I0
I0
I0
I0
I0
I0
I1
I1
I1
I1
I1
I4
tp346
(iyahtzee
Roll
p347
(dp348
g24
(lp349
I4
asbs(I0
I0
I0
I0
I0
I0
I0
I0
I0
I0
I0
I0
I0
I0
I1
I1
I3
I3
I3
I4
tp350
(iyahtzee
RecordScore
p351
(dp352
g4
g9
sbs(I0
I0
I0
I0
I0
I0
I0
I0
I0
I0
I0
I0
I0
I0
I1
I1
I2
I2
I4
I6
tp353
(iyahtzee
Roll
p354
(dp355
g24
(lp356
I0
aI1
aI2
asbs(I0
I0
I0
I0
I0
I0
I0
I0
I0
I0
I0
I0
I0
I0
I1
I1
I2
I2
I3
I6
tp357
(iyahtzee
RecordScore
p358
(dp359
g4
g20
sbs(I0
I0
I0
I0
I0
I0
I0
I0
I0
I0
I0
I0
I0
I0
I1
I1
I1
I1
I2
I4
tp360
(iyahtzee
Roll
p361
(dp362
g24
(lp363
I0
aI1
aI2
aI3
asbs(I0
I0
I0
I0
I0
I0
I0
I0
I0
I0
I0
I0
I0
I0
I1
I1
I1
I4
I6
I6
tp364
(iyahtzee
Roll
p365
(dp366
g24
(lp367
I0
aI1
aI2
asbs(I0
I0
I0
I0
I0
I0
I0
I0
I0
I0
I0
I0
I0
I0
I1
I2
I3
I3
I4
I6
tp368
(iyahtzee
Roll
p369
(dp370
g24
(lp371
I1
aI4
asbs(I0
I0
I0
I0
I0
I0
I0
I0
I0
I0
I0
I0
I0
I0
I1
I1
I1
I2
I4
I6
tp372
(iyahtzee
Roll
p373
(dp374
g24
(lp375
I0
aI1
aI2
asbs(I0
I0
I0
I0
I0
I0
I0
I0
I0
I0
I0
I0
I0
I0
I1
I2
I2
I3
I5
I6
tp376
(iyahtzee
Roll
p377
(dp378
g24
(lp379
I0
aI1
asbs(I0
I0
I0
I0
I0
I0
I0
I0
I0
I0
I0
I0
I0
I0
I1
I1
I3
I3
I5
I6
tp380
(iyahtzee
RecordScore
p381
(dp382
g4
g9
sbs(I0
I0
I0
I0
I0
I0
I0
I0
I0
I0
I0
I0
I0
I0
I1
I2
I3
I3
I3
I5
tp383
(iyahtzee
RecordScore
p384
(dp385
g4
g9
sbs(I0
I0
I0
I0
I0
I0
I0
I0
I0
I0
I0
I0
I0
I0
I1
I2
I2
I5
I5
I5
tp386
(iyahtzee
RecordScore
p387
(dp388
g4
g37
sbs(I0
I0
I0
I0
I0
I0
I0
I0
I0
I0
I0
I0
I0
I0
I1
I3
I3
I5
I5
I5
tp389
(iyahtzee
RecordScore
p390
(dp391
g4
g37
sbs(I0
I0
I0
I0
I0
I0
I0
I0
I0
I0
I0
I0
I0
I0
I1
I1
I1
I2
I2
I3
tp392
(iyahtzee
RecordScore
p393
(dp394
g4
g20
sbs(I0
I0
I0
I0
I0
I0
I0
I0
I0
I0
I0
I0
I0
I0
I1
I2
I2
I2
I5
I5
tp395
(iyahtzee
RecordScore
p396
(dp397
g4
g37
sbs(I0
I0
I0
I0
I0
I0
I0
I0
I0
I0
I0
I0
I0
I0
I1
I5
I6
I6
I6
I6
tp398
(iyahtzee
RecordScore
p399
(dp400
g4
g48
sbs(I0
I0
I0
I0
I0
I0
I0
I0
I0
I0
I0
I0
I0
I0
I1
I1
I2
I2
I2
I6
tp401
(iyahtzee
RecordScore
p402
(dp403
g4
g20
sbs(I0
I0
I0
I0
I0
I0
I0
I0
I0
I0
I0
I0
I0
I0
I1
I1
I1
I4
I5
I5
tp404
(iyahtzee
Roll
p405
(dp406
g24
(lp407
I0
aI1
aI2
asbs(I0
I0
I0
I0
I0
I0
I0
I0
I0
I0
I0
I0
I0
I0
I1
I2
I3
I3
I4
I4
tp408
(iyahtzee
Roll
p409
(dp410
g24
(lp411
I1
aI3
asbs(I0
I0
I0
I0
I0
I0
I0
I0
I0
I0
I0
I0
I0
I0
I1
I1
I2
I2
I6
I6
tp412
(iyahtzee
Roll
p413
(dp414
g24
(lp415
I0
aI1
aI2
asbs(I0
I0
I0
I0
I0
I0
I0
I0
I0
I0
I0
I0
I0
I0
I1
I2
I4
I5
I5
I6
tp416
(iyahtzee
RecordScore
p417
(dp418
g4
g80
sbs(I0
I0
I0
I0
I0
I0
I0
I0
I0
I0
I0
I0
I0
I0
I1
I2
I2
I2
I5
I6
tp419
(iyahtzee
RecordScore
p420
(dp421
g4
g20
sbs(I0
I0
I0
I0
I0
I0
I0
I0
I0
I0
I0
I0
I0
I0
I1
I1
I2
I3
I4
I4
tp422
(iyahtzee
RecordScore
p423
(dp424
g4
g29
sbs(I0
I0
I0
I0
I0
I0
I0
I0
I0
I0
I0
I0
I0
I0
I1
I2
I3
I3
I5
I6
tp425
(iyahtzee
RecordScore
p426
(dp427
g4
g9
sbs(I0
I0
I0
I0
I0
I0
I0
I0
I0
I0
I0
I0
I0
I0
I1
I1
I5
I5
I5
I6
tp428
(iyahtzee
RecordScore
p429
(dp430
g4
g63
sbs(I0
I0
I0
I0
I0
I0
I0
I0
I0
I0
I0
I0
I0
I0
I1
I1
I2
I2
I2
I2
tp431
(iyahtzee
Roll
p432
(dp433
g24
(lp434
I0
asbs(I0
I0
I0
I0
I0
I0
I0
I0
I0
I0
I0
I0
I0
I0
I1
I1
I1
I1
I4
I4
tp435
(iyahtzee
RecordScore
p436
(dp437
g4
g37
sbs(I0
I0
I0
I0
I0
I0
I0
I0
I0
I0
I0
I0
I0
I0
I1
I1
I1
I5
I5
I6
tp438
(iyahtzee
Roll
p439
(dp440
g24
(lp441
I0
aI1
asbs(I0
I0
I0
I0
I0
I0
I0
I0
I0
I0
I0
I0
I0
I0
I1
I1
I2
I2
I5
I6
tp442
(iyahtzee
Roll
p443
(dp444
g24
(lp445
I0
aI1
aI2
asbs(I0
I0
I0
I0
I0
I0
I0
I0
I0
I0
I0
I0
I0
I0
I1
I4
I4
I4
I5
I6
tp446
(iyahtzee
RecordScore
p447
(dp448
g4
g63
sbs(I0
I0
I0
I0
I0
I0
I0
I0
I0
I0
I0
I0
I0
I0
I1
I2
I2
I2
I4
I6
tp449
(iyahtzee
RecordScore
p450
(dp451
g4
g20
sbs(I0
I0
I0
I0
I0
I0
I0
I0
I0
I0
I0
I0
I0
I0
I1
I2
I4
I4
I5
I5
tp452
(iyahtzee
Roll
p453
(dp454
g24
(lp455
I0
aI1
aI2
asbs(I0
I0
I0
I0
I0
I0
I0
I0
I0
I0
I0
I0
I0
I0
I1
I2
I2
I2
I2
I6
tp456
(iyahtzee
Roll
p457
(dp458
g24
(lp459
I4
asbs(I0
I0
I0
I0
I0
I0
I0
I0
I0
I0
I0
I0
I0
I0
I1
I2
I2
I2
I3
I6
tp460
(iyahtzee
RecordScore
p461
(dp462
g4
g20
sbs(I0
I0
I0
I0
I0
I0
I0
I0
I0
I0
I0
I0
I0
I0
I1
I5
I5
I5
I5
I5
tp463
(iyahtzee
RecordScore
p464
(dp465
g4
g13
sbs(I0
I0
I0
I0
I0
I0
I0
I0
I0
I0
I0
I0
I0
I0
I1
I1
I1
I1
I3
I5
tp466
(iyahtzee
Roll
p467
(dp468
g24
(lp469
I0
aI1
aI2
asbs(I0
I0
I0
I0
I0
I0
I0
I0
I0
I0
I0
I0
I0
I0
I1
I3
I3
I4
I4
I5
tp470
(iyahtzee
Roll
p471
(dp472
g24
(lp473
I0
aI2
asbs(I0
I0
I0
I0
I0
I0
I0
I0
I0
I0
I0
I0
I0
I0
I1
I1
I1
I1
I1
I3
tp474
(iyahtzee
Roll
p475
(dp476
g24
(lp477
I4
asbs(I0
I0
I0
I0
I0
I0
I0
I0
I0
I0
I0
I0
I0
I0
I1
I1
I3
I3
I3
I5
tp478
(iyahtzee
RecordScore
p479
(dp480
g4
g9
sbs(I0
I0
I0
I0
I0
I0
I0
I0
I0
I0
I0
I0
I0
I0
I1
I2
I2
I3
I5
I5
tp481
(iyahtzee
Roll
p482
(dp483
g24
(lp484
I0
aI1
aI2
asbs(I0
I0
I0
I0
I0
I0
I0
I0
I0
I0
I0
I0
I0
I0
I1
I2
I2
I4
I5
I5
tp485
(iyahtzee
Roll
p486
(dp487
g24
(lp488
I0
aI1
aI2
asbs(I0
I0
I0
I0
I0
I0
I0
I0
I0
I0
I0
I0
I0
I0
I1
I2
I3
I4
I6
I6
tp489
(iyahtzee
Roll
p490
(dp491
g24
(lp492
I0
aI1
aI2
asbs(I0
I0
I0
I0
I0
I0
I0
I0
I0
I0
I0
I0
I0
I0
I1
I3
I4
I4
I4
I6
tp493
(iyahtzee
RecordScore
p494
(dp495
g4
g63
sbs(I0
I0
I0
I0
I0
I0
I0
I0
I0
I0
I0
I0
I0
I0
I1
I1
I1
I3
I3
I6
tp496
(iyahtzee
RecordScore
p497
(dp498
g4
g9
sbs(I0
I0
I0
I0
I0
I0
I0
I0
I0
I0
I0
I0
I0
I0
I1
I1
I3
I4
I5
I5
tp499
(iyahtzee
Roll
p500
(dp501
g24
(lp502
I0
aI3
asbs(I0
I0
I0
I0
I0
I0
I0
I0
I0
I0
I0
I0
I0
I0
I1
I1
I2
I4
I6
I6
tp503
(iyahtzee
Roll
p504
(dp505
g24
(lp506
I0
aI1
aI2
asbs(I0
I0
I0
I0
I0
I0
I0
I0
I0
I0
I0
I0
I0
I0
I1
I1
I1
I3
I4
I4
tp507
(iyahtzee
RecordScore
p508
(dp509
g4
g5
sbs(I0
I0
I0
I0
I0
I0
I0
I0
I0
I0
I0
I0
I0
I0
I1
I1
I1
I2
I2
I2
tp510
(iyahtzee
RecordScore
p511
(dp512
g4
g37
sbs(I0
I0
I0
I0
I0
I0
I0
I0
I0
I0
I0
I0
I0
I0
I1
I4
I4
I5
I6
I6
tp513
(iyahtzee
RecordScore
p514
(dp515
g4
g80
sbs(I0
I0
I0
I0
I0
I0
I0
I0
I0
I0
I0
I0
I0
I0
I1
I1
I2
I2
I4
I4
tp516
(iyahtzee
RecordScore
p517
(dp518
g4
g5
sbs(I0
I0
I0
I0
I0
I0
I0
I0
I0
I0
I0
I0
I0
I0
I1
I1
I1
I4
I4
I6
tp519
(iyahtzee
RecordScore
p520
(dp521
g4
g5
sbs(I0
I0
I0
I0
I0
I0
I0
I0
I0
I0
I0
I0
I0
I0
I1
I1
I1
I2
I3
I6
tp522
(iyahtzee
Roll
p523
(dp524
g24
(lp525
I0
aI1
aI2
aI3
asbs(I0
I0
I0
I0
I0
I0
I0
I0
I0
I0
I0
I0
I0
I0
I1
I1
I4
I4
I5
I6
tp526
(iyahtzee
Roll
p527
(dp528
g24
(lp529
I0
aI1
asbs(I0
I0
I0
I0
I0
I0
I0
I0
I0
I0
I0
I0
I0
I0
I1
I1
I1
I2
I6
I6
tp530
(iyahtzee
Roll
p531
(dp532
g24
(lp533
I0
aI1
aI2
asbs(I0
I0
I0
I0
I0
I0
I0
I0
I0
I0
I0
I0
I0
I0
I1
I1
I2
I3
I5
I5
tp534
(iyahtzee
Roll
p535
(dp536
g24
(lp537
I0
aI1
aI2
asbs(I0
I0
I0
I0
I0
I0
I0
I0
I0
I0
I0
I0
I0
I0
I1
I2
I4
I5
I5
I5
tp538
(iyahtzee
RecordScore
p539
(dp540
g4
g70
sbs(I0
I0
I0
I0
I0
I0
I0
I0
I0
I0
I0
I0
I0
I0
I1
I3
I3
I3
I5
I5
tp541
(iyahtzee
RecordScore
p542
(dp543
g4
g37
sbs(I0
I0
I0
I0
I0
I0
I0
I0
I0
I0
I0
I0
I0
I0
I1
I1
I5
I5
I5
I5
tp544
(iyahtzee
Roll
p545
(dp546
g24
(lp547
I0
asbs(I0
I0
I0
I0
I0
I0
I0
I0
I0
I0
I0
I0
I0
I0
I1
I1
I2
I2
I2
I3
tp548
(iyahtzee
RecordScore
p549
(dp550
g4
g20
sbs(I0
I0
I0
I0
I0
I0
I0
I0
I0
I0
I0
I0
I0
I0
I1
I1
I1
I1
I4
I5
tp551
(iyahtzee
Roll
p552
(dp553
g24
(lp554
I0
aI1
aI2
asbs(I0
I0
I0
I0
I0
I0
I0
I0
I0
I0
I0
I0
I0
I0
I1
I1
I2
I3
I3
I5
tp555
(iyahtzee
RecordScore
p556
(dp557
g4
g9
sbs(I0
I0
I0
I0
I0
I0
I0
I0
I0
I0
I0
I0
I0
I0
I1
I4
I5
I5
I5
I6
tp558
(iyahtzee
RecordScore
p559
(dp560
g4
g63
sbs(I0
I0
I0
I0
I0
I0
I0
I0
I0
I0
I0
I0
I0
I0
I1
I2
I2
I2
I4
I5
tp561
(iyahtzee
RecordScore
p562
(dp563
g4
g20
sbs(I0
I0
I0
I0
I0
I0
I0
I0
I0
I0
I0
I0
I0
I0
I1
I1
I1
I2
I5
I6
tp564
(iyahtzee
Roll
p565
(dp566
g24
(lp567
I0
aI1
aI2
asbs(I0
I0
I0
I0
I0
I0
I0
I0
I0
I0
I0
I0
I0
I0
I1
I3
I3
I5
I6
I6
tp568
(iyahtzee
RecordScore
p569
(dp570
g4
g80
sbs(I0
I0
I0
I0
I0
I0
I0
I0
I0
I0
I0
I0
I0
I0
I1
I3
I4
I5
I5
I6
tp571
(iyahtzee
RecordScore
p572
(dp573
g4
g29
sbs(I0
I0
I0
I0
I0
I0
I0
I0
I0
I0
I0
I0
I0
I0
I1
I1
I2
I3
I6
I6
tp574
(iyahtzee
Roll
p575
(dp576
g24
(lp577
I0
aI1
aI2
asbs(I0
I0
I0
I0
I0
I0
I0
I0
I0
I0
I0
I0
I0
I0
I1
I1
I1
I2
I4
I5
tp578
(iyahtzee
Roll
p579
(dp580
g24
(lp581
I0
aI1
aI2
asbs(I0
I0
I0
I0
I0
I0
I0
I0
I0
I0
I0
I0
I0
I0
I1
I3
I3
I3
I6
I6
tp582
(iyahtzee
RecordScore
p583
(dp584
g4
g37
sbs(I0
I0
I0
I0
I0
I0
I0
I0
I0
I0
I0
I0
I0
I0
I1
I4
I4
I5
I5
I6
tp585
(iyahtzee
RecordScore
p586
(dp587
g4
g80
sbs(I0
I0
I0
I0
I0
I0
I0
I0
I0
I0
I0
I0
I0
I0
I1
I1
I1
I1
I3
I4
tp588
(iyahtzee
Roll
p589
(dp590
g24
(lp591
I0
aI1
aI2
asbs(I0
I0
I0
I0
I0
I0
I0
I0
I0
I0
I0
I0
I0
I0
I1
I1
I3
I5
I5
I5
tp592
(iyahtzee
RecordScore
p593
(dp594
g4
g70
sbs(I0
I0
I0
I0
I0
I0
I0
I0
I0
I0
I0
I0
I0
I0
I1
I3
I3
I4
I4
I4
tp595
(iyahtzee
RecordScore
p596
(dp597
g4
g37
sbs(I0
I0
I0
I0
I0
I0
I0
I0
I0
I0
I0
I0
I0
I0
I1
I4
I4
I4
I4
I5
tp598
(iyahtzee
Roll
p599
(dp600
g24
(lp601
I4
asbs(I0
I0
I0
I0
I0
I0
I0
I0
I0
I0
I0
I0
I0
I0
I1
I1
I1
I1
I1
I2
tp602
(iyahtzee
Roll
p603
(dp604
g24
(lp605
I4
asbs(I0
I0
I0
I0
I0
I0
I0
I0
I0
I0
I0
I0
I0
I0
I1
I1
I3
I3
I3
I6
tp606
(iyahtzee
RecordScore
p607
(dp608
g4
g9
sbs(I0
I0
I0
I0
I0
I0
I0
I0
I0
I0
I0
I0
I0
I0
I1
I1
I3
I4
I4
I4
tp609
(iyahtzee
RecordScore
p610
(dp611
g4
g5
sbs(I0
I0
I0
I0
I0
I0
I0
I0
I0
I0
I0
I0
I0
I0
I1
I1
I2
I2
I3
I4
tp612
(iyahtzee
RecordScore
p613
(dp614
g4
g29
sbs(I0
I0
I0
I0
I0
I0
I0
I0
I0
I0
I0
I0
I0
I0
I1
I2
I2
I4
I5
I6
tp615
(iyahtzee
Roll
p616
(dp617
g24
(lp618
I0
aI1
asbs(I0
I0
I0
I0
I0
I0
I0
I0
I0
I0
I0
I0
I0
I0
I1
I1
I1
I1
I5
I6
tp619
(iyahtzee
Roll
p620
(dp621
g24
(lp622
I0
aI1
aI2
asbs(I0
I0
I0
I0
I0
I0
I0
I0
I0
I0
I0
I0
I0
I0
I1
I2
I2
I4
I6
I6
tp623
(iyahtzee
Roll
p624
(dp625
g24
(lp626
I0
aI1
aI2
asbs(I0
I0
I0
I0
I0
I0
I0
I0
I0
I0
I0
I0
I0
I0
I1
I2
I4
I4
I4
I5
tp627
(iyahtzee
RecordScore
p628
(dp629
g4
g5
sbs(I0
I0
I0
I0
I0
I0
I0
I0
I0
I0
I0
I0
I0
I0
I1
I2
I3
I3
I3
I3
tp630
(iyahtzee
Roll
p631
(dp632
g24
(lp633
I0
asbs(I0
I0
I0
I0
I0
I0
I0
I0
I0
I0
I0
I0
I0
I0
I1
I2
I5
I6
I6
I6
tp634
(iyahtzee
RecordScore
p635
(dp636
g4
g63
sbs(I0
I0
I0
I0
I0
I0
I0
I0
I0
I0
I0
I0
I0
I0
I1
I2
I2
I4
I4
I6
tp637
(iyahtzee
RecordScore
p638
(dp639
g4
g5
sbs(I0
I0
I0
I0
I0
I0
I0
I0
I0
I0
I0
I0
I0
I0
I1
I2
I6
I6
I6
I6
tp640
(iyahtzee
Roll
p641
(dp642
g24
(lp643
I0
asbs(I0
I0
I0
I0
I0
I0
I0
I0
I0
I0
I0
I0
I0
I0
I1
I1
I1
I3
I4
I5
tp644
(iyahtzee
Roll
p645
(dp646
g24
(lp647
I0
aI1
asbs(I0
I0
I0
I0
I0
I0
I0
I0
I0
I0
I0
I0
I0
I0
I1
I1
I2
I2
I3
I3
tp648
(iyahtzee
RecordScore
p649
(dp650
g4
g9
sbs(I0
I0
I0
I0
I0
I0
I0
I0
I0
I0
I0
I0
I0
I0
I1
I1
I2
I3
I3
I3
tp651
(iyahtzee
RecordScore
p652
(dp653
g4
g9
sbs(I0
I0
I0
I0
I0
I0
I0
I0
I0
I0
I0
I0
I0
I0
I1
I3
I3
I3
I3
I5
tp654
(iyahtzee
Roll
p655
(dp656
g24
(lp657
I4
asbs(I0
I0
I0
I0
I0
I0
I0
I0
I0
I0
I0
I0
I0
I0
I1
I3
I5
I6
I6
I6
tp658
(iyahtzee
RecordScore
p659
(dp660
g4
g63
sbs(I0
I0
I0
I0
I0
I0
I0
I0
I0
I0
I0
I0
I0
I0
I1
I2
I3
I4
I4
I6
tp661
(iyahtzee
Roll
p662
(dp663
g24
(lp664
I2
aI4
asbs(I0
I0
I0
I0
I0
I0
I0
I0
I0
I0
I0
I0
I0
I0
I1
I4
I4
I5
I5
I5
tp665
(iyahtzee
RecordScore
p666
(dp667
g4
g37
sbs(I0
I0
I0
I0
I0
I0
I0
I0
I0
I0
I0
I0
I0
I0
I1
I3
I3
I3
I5
I6
tp668
(iyahtzee
RecordScore
p669
(dp670
g4
g63
sbs(I0
I0
I0
I0
I0
I0
I0
I0
I0
I0
I0
I0
I0
I0
I1
I1
I2
I4
I4
I6
tp671
(iyahtzee
RecordScore
p672
(dp673
g4
g5
sbs(I0
I0
I0
I0
I0
I0
I0
I0
I0
I0
I0
I0
I0
I0
I1
I2
I2
I3
I3
I5
tp674
(iyahtzee
RecordScore
p675
(dp676
g4
g9
sbs(I0
I0
I0
I0
I0
I0
I0
I0
I0
I0
I0
I0
I0
I0
I1
I4
I4
I4
I4
I6
tp677
(iyahtzee
RecordScore
p678
(dp679
g4
g48
sbs(I0
I0
I0
I0
I0
I0
I0
I0
I0
I0
I0
I0
I0
I0
I1
I2
I2
I3
I6
I6
tp680
(iyahtzee
Roll
p681
(dp682
g24
(lp683
I0
aI1
aI2
asbs(I0
I0
I0
I0
I0
I0
I0
I0
I0
I0
I0
I0
I0
I0
I1
I3
I3
I3
I3
I4
tp684
(iyahtzee
Roll
p685
(dp686
g24
(lp687
I4
asbs(I0
I0
I0
I0
I0
I0
I0
I0
I0
I0
I0
I0
I0
I0
I1
I2
I2
I5
I6
I6
tp688
(iyahtzee
Roll
p689
(dp690
g24
(lp691
I0
aI1
asbs(I0
I0
I0
I0
I0
I0
I0
I0
I0
I0
I0
I0
I0
I0
I1
I1
I3
I3
I6
I6
tp692
(iyahtzee
Roll
p693
(dp694
g24
(lp695
I0
aI1
aI2
asbs(I0
I0
I0
I0
I0
I0
I0
I0
I0
I0
I0
I0
I0
I0
I1
I2
I2
I2
I4
I4
tp696
(iyahtzee
RecordScore
p697
(dp698
g4
g37
sbs(I0
I0
I0
I0
I0
I0
I0
I0
I0
I0
I0
I0
I0
I0
I1
I1
I3
I5
I6
I6
tp699
(iyahtzee
Roll
p700
(dp701
g24
(lp702
I0
aI1
asbs(I0
I0
I0
I0
I0
I0
I0
I0
I0
I0
I0
I0
I0
I0
I1
I2
I4
I4
I4
I6
tp703
(iyahtzee
RecordScore
p704
(dp705
g4
g5
sbs(I0
I0
I0
I0
I0
I0
I0
I0
I0
I0
I0
I0
I0
I0
I1
I3
I3
I3
I3
I3
tp706
(iyahtzee
RecordScore
p707
(dp708
g4
g13
sbs(I0
I0
I0
I0
I0
I0
I0
I0
I0
I0
I0
I0
I0
I0
I1
I1
I4
I6
I6
I6
tp709
(iyahtzee
Roll
p710
(dp711
g24
(lp712
I0
aI1
asbs(I0
I0
I0
I0
I0
I0
I0
I0
I0
I0
I0
I0
I0
I0
I1
I1
I3
I4
I4
I5
tp713
(iyahtzee
Roll
p714
(dp715
g24
(lp716
I0
aI2
asbs(I0
I0
I0
I0
I0
I0
I0
I0
I0
I0
I0
I0
I0
I0
I1
I1
I1
I2
I5
I5
tp717
(iyahtzee
Roll
p718
(dp719
g24
(lp720
I0
aI1
aI2
asbs(I0
I0
I0
I0
I0
I0
I0
I0
I0
I0
I0
I0
I0
I0
I1
I1
I1
I1
I1
I1
tp721
(iyahtzee
RecordScore
p722
(dp723
g4
g13
sbs(I0
I0
I0
I0
I0
I0
I0
I0
I0
I0
I0
I0
I0
I0
I1
I3
I5
I5
I5
I6
tp724
(iyahtzee
RecordScore
p725
(dp726
g4
g63
sbs(I0
I0
I0
I0
I0
I0
I0
I0
I0
I0
I0
I0
I0
I0
I1
I2
I4
I5
I6
I6
tp727
(iyahtzee
RecordScore
p728
(dp729
g4
g80
sbs(I0
I0
I0
I0
I0
I0
I0
I0
I0
I0
I0
I0
I0
I0
I1
I2
I3
I5
I5
I6
tp730
(iyahtzee
RecordScore
p731
(dp732
g4
g80
sbs(I0
I0
I0
I0
I0
I0
I0
I0
I0
I0
I0
I0
I0
I0
I1
I1
I1
I1
I5
I5
tp733
(iyahtzee
RecordScore
p734
(dp735
g4
g37
sbs(I0
I0
I0
I0
I0
I0
I0
I0
I0
I0
I0
I0
I0
I0
I1
I1
I5
I5
I6
I6
tp736
(iyahtzee
RecordScore
p737
(dp738
g4
g80
sbs(I0
I0
I0
I0
I0
I0
I0
I0
I0
I0
I0
I0
I0
I0
I1
I1
I4
I4
I4
I4
tp739
(iyahtzee
Roll
p740
(dp741
g24
(lp742
I0
asbs(I0
I0
I0
I0
I0
I0
I0
I0
I0
I0
I0
I0
I0
I0
I1
I2
I4
I4
I4
I4
tp743
(iyahtzee
Roll
p744
(dp745
g24
(lp746
I0
asbs(I0
I0
I0
I0
I0
I0
I0
I0
I0
I0
I0
I0
I0
I0
I1
I4
I4
I4
I4
I4
tp747
(iyahtzee
RecordScore
p748
(dp749
g4
g13
sbs(I0
I0
I0
I0
I0
I0
I0
I0
I0
I0
I0
I0
I0
I0
I1
I1
I1
I5
I5
I5
tp750
(iyahtzee
RecordScore
p751
(dp752
g4
g37
sbs(I0
I0
I0
I0
I0
I0
I0
I0
I0
I0
I0
I0
I0
I0
I1
I2
I2
I5
I5
I6
tp753
(iyahtzee
Roll
p754
(dp755
g24
(lp756
I0
aI1
asbs(I0
I0
I0
I0
I0
I0
I0
I0
I0
I0
I0
I0
I0
I0
I1
I1
I1
I3
I4
I6
tp757
(iyahtzee
Roll
p758
(dp759
g24
(lp760
I0
aI1
aI4
asbs(I0
I0
I0
I0
I0
I0
I0
I0
I0
I0
I0
I0
I0
I0
I1
I1
I2
I3
I4
I6
tp761
(iyahtzee
RecordScore
p762
(dp763
g4
g29
sbs(I0
I0
I0
I0
I0
I0
I0
I0
I0
I0
I0
I0
I0
I0
I1
I1
I3
I3
I5
I5
tp764
(iyahtzee
Roll
p765
(dp766
g24
(lp767
I0
aI1
aI2
asbs(I0
I0
I0
I0
I0
I0
I0
I0
I0
I0
I0
I0
I0
I0
I1
I1
I4
I5
I6
I6
tp768
(iyahtzee
RecordScore
p769
(dp770
g4
g80
sbs(I0
I0
I0
I0
I0
I0
I0
I0
I0
I0
I0
I0
I0
I0
I1
I1
I1
I4
I4
I4
tp771
(iyahtzee
RecordScore
p772
(dp773
g4
g37
sbs(I0
I0
I0
I0
I0
I0
I0
I0
I0
I0
I0
I0
I0
I0
I1
I3
I3
I3
I4
I6
tp774
(iyahtzee
RecordScore
p775
(dp776
g4
g9
sbs(I0
I0
I0
I0
I0
I0
I0
I0
I0
I0
I0
I0
I0
I0
I1
I3
I3
I3
I3
I6
tp777
(iyahtzee
Roll
p778
(dp779
g24
(lp780
I4
asbs(I0
I0
I0
I0
I0
I0
I0
I0
I0
I0
I0
I0
I0
I0
I1
I1
I1
I3
I5
I5
tp781
(iyahtzee
Roll
p782
(dp783
g24
(lp784
I0
aI1
aI2
asbs(I0
I0
I0
I0
I0
I0
I0
I0
I0
I0
I0
I0
I0
I0
I1
I3
I3
I3
I4
I5
tp785
(iyahtzee
RecordScore
p786
(dp787
g4
g9
sbs(I0
I0
I0
I0
I0
I0
I0
I0
I0
I0
I0
I0
I0
I0
I1
I2
I3
I3
I6
I6
tp788
(iyahtzee
Roll
p789
(dp790
g24
(lp791
I0
aI1
aI2
asbs(I0
I0
I0
I0
I0
I0
I0
I0
I0
I0
I0
I0
I0
I0
I1
I3
I3
I4
I5
I6
tp792
(iyahtzee
RecordScore
p793
(dp794
g4
g29
sbs(I0
I0
I0
I0
I0
I0
I0
I0
I0
I0
I0
I0
I0
I0
I1
I2
I5
I5
I6
I6
tp795
(iyahtzee
RecordScore
p796
(dp797
g4
g80
sbs(I0
I0
I0
I0
I0
I0
I0
I0
I0
I0
I0
I0
I0
I0
I1
I2
I2
I2
I6
I6
tp798
(iyahtzee
RecordScore
p799
(dp800
g4
g37
sbs(I0
I0
I0
I0
I0
I0
I0
I0
I0
I0
I0
I0
I0
I0
I1
I4
I4
I4
I6
I6
tp801
(iyahtzee
RecordScore
p802
(dp803
g4
g37
sbs(I0
I0
I0
I0
I0
I0
I0
I0
I0
I0
I0
I0
I0
I0
I1
I2
I2
I3
I4
I6
tp804
(iyahtzee
Roll
p805
(dp806
g24
(lp807
I0
aI4
asbs(I0
I0
I0
I0
I0
I0
I0
I0
I0
I0
I0
I0
I0
I0
I1
I4
I5
I5
I6
I6
tp808
(iyahtzee
RecordScore
p809
(dp810
g4
g80
sbs(I0
I0
I0
I0
I0
I0
I0
I0
I0
I0
I0
I0
I0
I0
I1
I1
I1
I4
I4
I5
tp811
(iyahtzee
RecordScore
p812
(dp813
g4
g5
sbs(I0
I0
I0
I0
I0
I0
I0
I0
I0
I0
I0
I0
I0
I0
I1
I4
I4
I6
I6
I6
tp814
(iyahtzee
RecordScore
p815
(dp816
g4
g63
sbs(I0
I0
I0
I0
I0
I0
I0
I0
I0
I0
I0
I0
I0
I0
I1
I2
I2
I3
I3
I6
tp817
(iyahtzee
RecordScore
p818
(dp819
g4
g9
sbs(I0
I0
I0
I0
I0
I0
I0
I0
I0
I0
I0
I0
I0
I0
I1
I1
I3
I3
I4
I6
tp820
(iyahtzee
RecordScore
p821
(dp822
g4
g9
sbs(I0
I0
I0
I0
I0
I0
I0
I0
I0
I0
I0
I0
I0
I0
I1
I3
I4
I5
I6
I6
tp823
(iyahtzee
RecordScore
p824
(dp825
g4
g29
sbs(I0
I0
I0
I0
I0
I0
I0
I0
I0
I0
I0
I0
I0
I0
I1
I5
I5
I5
I6
I6
tp826
(iyahtzee
RecordScore
p827
(dp828
g4
g63
sbs(I0
I0
I0
I0
I0
I0
I0
I0
I0
I0
I0
I0
I0
I0
I1
I3
I5
I5
I6
I6
tp829
(iyahtzee
RecordScore
p830
(dp831
g4
g80
sbs(I0
I0
I0
I0
I0
I0
I0
I0
I0
I0
I0
I0
I0
I0
I1
I2
I2
I2
I2
I4
tp832
(iyahtzee
Roll
p833
(dp834
g24
(lp835
I4
asbs(I0
I0
I0
I0
I0
I0
I0
I0
I0
I0
I0
I0
I0
I0
I1
I2
I2
I4
I4
I4
tp836
(iyahtzee
RecordScore
p837
(dp838
g4
g37
sbs(I0
I0
I0
I0
I0
I0
I0
I0
I0
I0
I0
I0
I0
I0
I1
I1
I2
I3
I5
I6
tp839
(iyahtzee
Roll
p840
(dp841
g24
(lp842
I0
aI1
asbs(I0
I0
I0
I0
I0
I0
I0
I0
I0
I0
I0
I0
I0
I0
I1
I3
I4
I4
I4
I5
tp843
(iyahtzee
RecordScore
p844
(dp845
g4
g5
sbs(I0
I0
I0
I0
I0
I0
I0
I0
I0
I0
I0
I0
I0
I0
I1
I1
I4
I4
I4
I5
tp846
(iyahtzee
RecordScore
p847
(dp848
g4
g5
sbs(I0
I0
I0
I0
I0
I0
I0
I0
I0
I0
I0
I0
I0
I0
I1
I2
I2
I4
I4
I5
tp849
(iyahtzee
RecordScore
p850
(dp851
g4
g5
sbs(I0
I0
I0
I0
I0
I0
I0
I0
I0
I0
I0
I0
I0
I0
I1
I3
I4
I4
I4
I4
tp852
(iyahtzee
Roll
p853
(dp854
g24
(lp855
I0
asbs(I0
I0
I0
I0
I0
I0
I0
I0
I0
I0
I0
I0
I0
I0
I1
I1
I2
I6
I6
I6
tp856
(iyahtzee
Roll
p857
(dp858
g24
(lp859
I0
aI1
asbs(I0
I0
I0
I0
I0
I0
I0
I0
I0
I0
I0
I0
I0
I0
I1
I1
I3
I5
I5
I6
tp860
(iyahtzee
Roll
p861
(dp862
g24
(lp863
I0
aI1
asbs(I0
I0
I0
I0
I0
I0
I0
I0
I0
I0
I0
I0
I0
I0
I1
I3
I3
I3
I4
I4
tp864
(iyahtzee
RecordScore
p865
(dp866
g4
g37
sbs(I0
I0
I0
I0
I0
I0
I0
I0
I0
I0
I0
I0
I0
I0
I1
I2
I3
I4
I4
I5
tp867
(iyahtzee
Roll
p868
(dp869
g24
(lp870
I2
asbs(I0
I0
I0
I0
I0
I0
I0
I0
I0
I0
I0
I0
I0
I0
I1
I3
I4
I4
I5
I5
tp871
(iyahtzee
RecordScore
p872
(dp873
g4
g80
sbs.