(dp0
(I0
I0
I0
I0
I0
I0
I0
I0
I0
I0
I0
I0
I0
I0
I2
I1
I2
I3
I4
I5
tp1
(iya
RecordScore
p2
(dp3
S'_scoreName'
p4
S'Large Straight'
p5
sbs(I0
I0
I0
I0
I0
I0
I0
I0
I0
I0
I0
I0
I0
I0
I2
I2
I2
I2
I2
I5
tp6
(iya
RecordScore
p7
(dp8
g4
S'Twos'
p9
sbs(I0
I0
I0
I0
I0
I0
I0
I0
I0
I0
I0
I0
I0
I0
I2
I1
I1
I1
I1
I1
tp10
(iya
RecordScore
p11
(dp12
g4
S'Yahtzee'
p13
sbs(I0
I0
I0
I0
I0
I0
I0
I0
I0
I0
I0
I0
I0
I0
I2
I2
I2
I4
I5
I5
tp14
(iya
RecordScore
p15
(dp16
g4
S'Fives'
p17
sbs(I0
I0
I0
I0
I0
I0
I0
I0
I0
I0
I0
I0
I0
I0
I2
I1
I2
I2
I3
I5
tp18
(iya
RecordScore
p19
(dp20
g4
g9
sbs(I0
I0
I0
I0
I0
I0
I0
I0
I0
I0
I0
I0
I0
I0
I2
I2
I3
I3
I4
I5
tp21
(iya
RecordScore
p22
(dp23
g4
S'Small Straight'
p24
sbs(I0
I0
I0
I0
I0
I0
I0
I0
I0
I0
I0
I0
I0
I0
I2
I1
I1
I3
I4
I5
tp25
(iya
RecordScore
p26
(dp27
g4
S'Aces'
p28
sbs(I0
I0
I0
I0
I0
I0
I0
I0
I0
I0
I0
I0
I0
I0
I2
I1
I4
I6
I6
I6
tp29
(iya
RecordScore
p30
(dp31
g4
S'Sixes'
p32
sbs(I0
I0
I0
I0
I0
I0
I0
I0
I0
I0
I0
I0
I0
I0
I2
I4
I4
I5
I6
I6
tp33
(iya
RecordScore
p34
(dp35
g4
S'Chance'
p36
sbs(I0
I0
I0
I0
I0
I0
I0
I0
I0
I0
I0
I0
I0
I0
I2
I3
I4
I4
I5
I6
tp37
(iya
RecordScore
p38
(dp39
g4
g24
sbs(I0
I0
I0
I0
I0
I0
I0
I0
I0
I0
I0
I0
I0
I0
I2
I1
I2
I3
I3
I4
tp40
(iya
RecordScore
p41
(dp42
g4
g24
sbs(I0
I0
I0
I0
I0
I0
I0
I0
I0
I0
I0
I0
I0
I0
I2
I1
I4
I4
I6
I6
tp43
(iya
RecordScore
p44
(dp45
g4
g36
sbs(I0
I0
I0
I0
I0
I0
I0
I0
I0
I0
I0
I0
I0
I0
I2
I2
I5
I6
I6
I6
tp46
(iya
RecordScore
p47
(dp48
g4
S'3 of a kind'
p49
sbs(I0
I0
I0
I0
I0
I0
I0
I0
I0
I0
I0
I0
I0
I0
I2
I1
I1
I2
I3
I6
tp50
(iya
RecordScore
p51
(dp52
g4
g28
sbs(I0
I0
I0
I0
I0
I0
I0
I0
I0
I0
I0
I0
I0
I0
I2
I1
I1
I1
I5
I6
tp53
(iya
RecordScore
p54
(dp55
g4
g28
sbs(I0
I0
I0
I0
I0
I0
I0
I0
I0
I0
I0
I0
I0
I0
I2
I2
I3
I3
I3
I4
tp56
(iya
RecordScore
p57
(dp58
g4
S'Threes'
p59
sbs(I0
I0
I0
I0
I0
I0
I0
I0
I0
I0
I0
I0
I0
I0
I2
I2
I2
I2
I4
I6
tp60
(iya
RecordScore
p61
(dp62
g4
g9
sbs(I0
I0
I0
I0
I0
I0
I0
I0
I0
I0
I0
I0
I0
I0
I2
I1
I2
I3
I5
I6
tp63
(iya
RecordScore
p64
(dp65
g4
g9
sbs(I0
I0
I0
I0
I0
I0
I0
I0
I0
I0
I0
I0
I0
I0
I2
I4
I5
I5
I5
I5
tp66
(iya
RecordScore
p67
(dp68
g4
S'4 of a kind'
p69
sbs(I0
I0
I0
I0
I0
I0
I0
I0
I0
I0
I0
I0
I0
I0
I2
I4
I5
I5
I6
I6
tp70
(iya
RecordScore
p71
(dp72
g4
g36
sbs(I0
I0
I0
I0
I0
I0
I0
I0
I0
I0
I0
I0
I0
I0
I2
I1
I1
I5
I5
I6
tp73
(iya
RecordScore
p74
(dp75
g4
g17
sbs(I0
I0
I0
I0
I0
I0
I0
I0
I0
I0
I0
I0
I0
I0
I2
I2
I3
I3
I5
I6
tp76
(iya
RecordScore
p77
(dp78
g4
g59
sbs(I0
I0
I0
I0
I0
I0
I0
I0
I0
I0
I0
I0
I0
I0
I2
I3
I3
I4
I6
I6
tp79
(iya
RecordScore
p80
(dp81
g4
g36
sbs(I0
I0
I0
I0
I0
I0
I0
I0
I0
I0
I0
I0
I0
I0
I2
I1
I3
I3
I3
I5
tp82
(iya
RecordScore
p83
(dp84
g4
g59
sbs(I0
I0
I0
I0
I0
I0
I0
I0
I0
I0
I0
I0
I0
I0
I2
I1
I2
I5
I5
I5
tp85
(iya
RecordScore
p86
(dp87
g4
g17
sbs(I0
I0
I0
I0
I0
I0
I0
I0
I0
I0
I0
I0
I0
I0
I2
I3
I3
I3
I4
I4
tp88
(iya
RecordScore
p89
(dp90
g4
S'Full House'
p91
sbs(I0
I0
I0
I0
I0
I0
I0
I0
I0
I0
I0
I0
I0
I0
I2
I3
I3
I6
I6
I6
tp92
(iya
RecordScore
p93
(dp94
g4
g91
sbs(I0
I0
I0
I0
I0
I0
I0
I0
I0
I0
I0
I0
I0
I0
I2
I1
I2
I3
I3
I5
tp95
(iya
RecordScore
p96
(dp97
g4
g59
sbs(I0
I0
I0
I0
I0
I0
I0
I0
I0
I0
I0
I0
I0
I0
I2
I3
I4
I4
I4
I5
tp98
(iya
RecordScore
p99
(dp100
g4
S'Fours'
p101
sbs(I0
I0
I0
I0
I0
I0
I0
I0
I0
I0
I0
I0
I0
I0
I2
I1
I2
I2
I5
I5
tp102
(iya
RecordScore
p103
(dp104
g4
g17
sbs(I0
I0
I0
I0
I0
I0
I0
I0
I0
I0
I0
I0
I0
I0
I2
I2
I3
I5
I5
I5
tp105
(iya
RecordScore
p106
(dp107
g4
g17
sbs(I0
I0
I0
I0
I0
I0
I0
I0
I0
I0
I0
I0
I0
I0
I2
I1
I1
I1
I2
I2
tp108
(iya
RecordScore
p109
(dp110
g4
g91
sbs(I0
I0
I0
I0
I0
I0
I0
I0
I0
I0
I0
I0
I0
I0
I2
I1
I1
I1
I4
I5
tp111
(iya
RecordScore
p112
(dp113
g4
g28
sbs(I0
I0
I0
I0
I0
I0
I0
I0
I0
I0
I0
I0
I0
I0
I2
I1
I3
I3
I4
I4
tp114
(iya
RecordScore
p115
(dp116
g4
g101
sbs(I0
I0
I0
I0
I0
I0
I0
I0
I0
I0
I0
I0
I0
I0
I2
I3
I4
I5
I6
I6
tp117
(iya
RecordScore
p118
(dp119
g4
g24
sbs(I0
I0
I0
I0
I0
I0
I0
I0
I0
I0
I0
I0
I0
I0
I2
I1
I4
I5
I5
I6
tp120
(iya
RecordScore
p121
(dp122
g4
g36
sbs(I0
I0
I0
I0
I0
I0
I0
I0
I0
I0
I0
I0
I0
I0
I2
I1
I4
I4
I4
I5
tp123
(iya
RecordScore
p124
(dp125
g4
g101
sbs(I0
I0
I0
I0
I0
I0
I0
I0
I0
I0
I0
I0
I0
I0
I2
I1
I2
I2
I2
I4
tp126
(iya
RecordScore
p127
(dp128
g4
g9
sbs(I0
I0
I0
I0
I0
I0
I0
I0
I0
I0
I0
I0
I0
I0
I2
I1
I3
I3
I5
I6
tp129
(iya
RecordScore
p130
(dp131
g4
g59
sbs(I0
I0
I0
I0
I0
I0
I0
I0
I0
I0
I0
I0
I0
I0
I2
I2
I5
I5
I5
I6
tp132
(iya
RecordScore
p133
(dp134
g4
g49
sbs(I0
I0
I0
I0
I0
I0
I0
I0
I0
I0
I0
I0
I0
I0
I2
I2
I2
I2
I2
I2
tp135
(iya
RecordScore
p136
(dp137
g4
g13
sbs(I0
I0
I0
I0
I0
I0
I0
I0
I0
I0
I0
I0
I0
I0
I2
I1
I1
I2
I6
I6
tp138
(iya
RecordScore
p139
(dp140
g4
g32
sbs(I0
I0
I0
I0
I0
I0
I0
I0
I0
I0
I0
I0
I0
I0
I2
I1
I2
I2
I3
I6
tp141
(iya
RecordScore
p142
(dp143
g4
g9
sbs(I0
I0
I0
I0
I0
I0
I0
I0
I0
I0
I0
I0
I0
I0
I2
I1
I2
I2
I4
I6
tp144
(iya
RecordScore
p145
(dp146
g4
g9
sbs(I0
I0
I0
I0
I0
I0
I0
I0
I0
I0
I0
I0
I0
I0
I2
I1
I1
I4
I6
I6
tp147
(iya
RecordScore
p148
(dp149
g4
g32
sbs(I0
I0
I0
I0
I0
I0
I0
I0
I0
I0
I0
I0
I0
I0
I2
I1
I4
I4
I5
I5
tp150
(iya
RecordScore
p151
(dp152
g4
g17
sbs(I0
I0
I0
I0
I0
I0
I0
I0
I0
I0
I0
I0
I0
I0
I2
I1
I1
I2
I4
I5
tp153
(iya
RecordScore
p154
(dp155
g4
g28
sbs(I0
I0
I0
I0
I0
I0
I0
I0
I0
I0
I0
I0
I0
I0
I2
I2
I3
I4
I4
I5
tp156
(iya
RecordScore
p157
(dp158
g4
g24
sbs(I0
I0
I0
I0
I0
I0
I0
I0
I0
I0
I0
I0
I0
I0
I2
I1
I1
I3
I4
I4
tp159
(iya
RecordScore
p160
(dp161
g4
g101
sbs(I0
I0
I0
I0
I0
I0
I0
I0
I0
I0
I0
I0
I0
I0
I2
I1
I1
I6
I6
I6
tp162
(iya
RecordScore
p163
(dp164
g4
g91
sbs(I0
I0
I0
I0
I0
I0
I0
I0
I0
I0
I0
I0
I0
I0
I2
I2
I2
I2
I2
I4
tp165
(iya
RecordScore
p166
(dp167
g4
g9
sbs(I0
I0
I0
I0
I0
I0
I0
I0
I0
I0
I0
I0
I0
I0
I2
I1
I2
I4
I4
I5
tp168
(iya
RecordScore
p169
(dp170
g4
g101
sbs(I0
I0
I0
I0
I0
I0
I0
I0
I0
I0
I0
I0
I0
I0
I2
I2
I2
I2
I3
I5
tp171
(iya
RecordScore
p172
(dp173
g4
g9
sbs(I0
I0
I0
I0
I0
I0
I0
I0
I0
I0
I0
I0
I0
I0
I2
I1
I3
I6
I6
I6
tp174
(iya
RecordScore
p175
(dp176
g4
g32
sbs(I0
I0
I0
I0
I0
I0
I0
I0
I0
I0
I0
I0
I0
I0
I2
I1
I2
I3
I5
I5
tp177
(iya
RecordScore
p178
(dp179
g4
g17
sbs(I0
I0
I0
I0
I0
I0
I0
I0
I0
I0
I0
I0
I0
I0
I2
I1
I2
I4
I5
I5
tp180
(iya
RecordScore
p181
(dp182
g4
g17
sbs(I0
I0
I0
I0
I0
I0
I0
I0
I0
I0
I0
I0
I0
I0
I2
I1
I3
I4
I6
I6
tp183
(iya
RecordScore
p184
(dp185
g4
g32
sbs(I0
I0
I0
I0
I0
I0
I0
I0
I0
I0
I0
I0
I0
I0
I2
I2
I2
I6
I6
I6
tp186
(iya
RecordScore
p187
(dp188
g4
g91
sbs(I0
I0
I0
I0
I0
I0
I0
I0
I0
I0
I0
I0
I0
I0
I2
I2
I3
I3
I5
I5
tp189
(iya
RecordScore
p190
(dp191
g4
g17
sbs(I0
I0
I0
I0
I0
I0
I0
I0
I0
I0
I0
I0
I0
I0
I2
I1
I4
I4
I4
I6
tp192
(iya
RecordScore
p193
(dp194
g4
g101
sbs(I0
I0
I0
I0
I0
I0
I0
I0
I0
I0
I0
I0
I0
I0
I2
I2
I2
I4
I6
I6
tp195
(iya
RecordScore
p196
(dp197
g4
g32
sbs(I0
I0
I0
I0
I0
I0
I0
I0
I0
I0
I0
I0
I0
I0
I2
I1
I5
I6
I6
I6
tp198
(iya
RecordScore
p199
(dp200
g4
g49
sbs(I0
I0
I0
I0
I0
I0
I0
I0
I0
I0
I0
I0
I0
I0
I2
I3
I4
I4
I4
I4
tp201
(iya
RecordScore
p202
(dp203
g4
g101
sbs(I0
I0
I0
I0
I0
I0
I0
I0
I0
I0
I0
I0
I0
I0
I2
I2
I2
I2
I6
I6
tp204
(iya
RecordScore
p205
(dp206
g4
g91
sbs(I0
I0
I0
I0
I0
I0
I0
I0
I0
I0
I0
I0
I0
I0
I2
I1
I1
I4
I5
I6
tp207
(iya
RecordScore
p208
(dp209
g4
g28
sbs(I0
I0
I0
I0
I0
I0
I0
I0
I0
I0
I0
I0
I0
I0
I2
I1
I1
I2
I2
I2
tp210
(iya
RecordScore
p211
(dp212
g4
g91
sbs(I0
I0
I0
I0
I0
I0
I0
I0
I0
I0
I0
I0
I0
I0
I2
I2
I4
I5
I5
I6
tp213
(iya
RecordScore
p214
(dp215
g4
g36
sbs(I0
I0
I0
I0
I0
I0
I0
I0
I0
I0
I0
I0
I0
I0
I2
I1
I2
I2
I3
I4
tp216
(iya
RecordScore
p217
(dp218
g4
g24
sbs(I0
I0
I0
I0
I0
I0
I0
I0
I0
I0
I0
I0
I0
I0
I2
I2
I4
I4
I5
I6
tp219
(iya
RecordScore
p220
(dp221
g4
g36
sbs(I0
I0
I0
I0
I0
I0
I0
I0
I0
I0
I0
I0
I0
I0
I2
I1
I1
I1
I4
I4
tp222
(iya
RecordScore
p223
(dp224
g4
g91
sbs(I0
I0
I0
I0
I0
I0
I0
I0
I0
I0
I0
I0
I0
I0
I2
I4
I4
I4
I5
I6
tp225
(iya
RecordScore
p226
(dp227
g4
g49
sbs(I0
I0
I0
I0
I0
I0
I0
I0
I0
I0
I0
I0
I0
I0
I2
I4
I4
I4
I5
I5
tp228
(iya
RecordScore
p229
(dp230
g4
g91
sbs(I0
I0
I0
I0
I0
I0
I0
I0
I0
I0
I0
I0
I0
I0
I2
I1
I4
I5
I5
I5
tp231
(iya
RecordScore
p232
(dp233
g4
g17
sbs(I0
I0
I0
I0
I0
I0
I0
I0
I0
I0
I0
I0
I0
I0
I2
I1
I1
I1
I2
I5
tp234
(iya
RecordScore
p235
(dp236
g4
g28
sbs(I0
I0
I0
I0
I0
I0
I0
I0
I0
I0
I0
I0
I0
I0
I2
I4
I4
I4
I4
I5
tp237
(iya
RecordScore
p238
(dp239
g4
g69
sbs(I0
I0
I0
I0
I0
I0
I0
I0
I0
I0
I0
I0
I0
I0
I2
I2
I5
I5
I5
I5
tp240
(iya
RecordScore
p241
(dp242
g4
g69
sbs(I0
I0
I0
I0
I0
I0
I0
I0
I0
I0
I0
I0
I0
I0
I2
I2
I2
I2
I2
I3
tp243
(iya
RecordScore
p244
(dp245
g4
g9
sbs(I0
I0
I0
I0
I0
I0
I0
I0
I0
I0
I0
I0
I0
I0
I2
I1
I1
I1
I1
I3
tp246
(iya
RecordScore
p247
(dp248
g4
g28
sbs(I0
I0
I0
I0
I0
I0
I0
I0
I0
I0
I0
I0
I0
I0
I2
I1
I1
I1
I3
I5
tp249
(iya
RecordScore
p250
(dp251
g4
g28
sbs(I0
I0
I0
I0
I0
I0
I0
I0
I0
I0
I0
I0
I0
I0
I2
I1
I2
I2
I4
I5
tp252
(iya
RecordScore
p253
(dp254
g4
g9
sbs(I0
I0
I0
I0
I0
I0
I0
I0
I0
I0
I0
I0
I0
I0
I2
I3
I5
I5
I5
I5
tp255
(iya
RecordScore
p256
(dp257
g4
g69
sbs(I0
I0
I0
I0
I0
I0
I0
I0
I0
I0
I0
I0
I0
I0
I2
I1
I2
I3
I3
I6
tp258
(iya
RecordScore
p259
(dp260
g4
g59
sbs(I0
I0
I0
I0
I0
I0
I0
I0
I0
I0
I0
I0
I0
I0
I2
I1
I2
I4
I4
I4
tp261
(iya
RecordScore
p262
(dp263
g4
g101
sbs(I0
I0
I0
I0
I0
I0
I0
I0
I0
I0
I0
I0
I0
I0
I2
I1
I1
I2
I4
I6
tp264
(iya
RecordScore
p265
(dp266
g4
g28
sbs(I0
I0
I0
I0
I0
I0
I0
I0
I0
I0
I0
I0
I0
I0
I2
I2
I3
I3
I3
I6
tp267
(iya
RecordScore
p268
(dp269
g4
g59
sbs(I0
I0
I0
I0
I0
I0
I0
I0
I0
I0
I0
I0
I0
I0
I2
I2
I3
I4
I4
I4
tp270
(iya
RecordScore
p271
(dp272
g4
g101
sbs(I0
I0
I0
I0
I0
I0
I0
I0
I0
I0
I0
I0
I0
I0
I2
I3
I3
I3
I5
I6
tp273
(iya
RecordScore
p274
(dp275
g4
g49
sbs(I0
I0
I0
I0
I0
I0
I0
I0
I0
I0
I0
I0
I0
I0
I2
I2
I2
I2
I3
I4
tp276
(iya
RecordScore
p277
(dp278
g4
g9
sbs(I0
I0
I0
I0
I0
I0
I0
I0
I0
I0
I0
I0
I0
I0
I2
I1
I2
I4
I5
I6
tp279
(iya
RecordScore
p280
(dp281
g4
g36
sbs(I0
I0
I0
I0
I0
I0
I0
I0
I0
I0
I0
I0
I0
I0
I2
I5
I5
I6
I6
I6
tp282
(iya
RecordScore
p283
(dp284
g4
g49
sbs(I0
I0
I0
I0
I0
I0
I0
I0
I0
I0
I0
I0
I0
I0
I2
I1
I3
I3
I4
I6
tp285
(iya
RecordScore
p286
(dp287
g4
g59
sbs(I0
I0
I0
I0
I0
I0
I0
I0
I0
I0
I0
I0
I0
I0
I2
I1
I1
I1
I2
I6
tp288
(iya
RecordScore
p289
(dp290
g4
g28
sbs(I0
I0
I0
I0
I0
I0
I0
I0
I0
I0
I0
I0
I0
I0
I2
I2
I3
I4
I5
I6
tp291
(iya
RecordScore
p292
(dp293
g4
g5
sbs(I0
I0
I0
I0
I0
I0
I0
I0
I0
I0
I0
I0
I0
I0
I2
I1
I3
I3
I3
I3
tp294
(iya
RecordScore
p295
(dp296
g4
g59
sbs(I0
I0
I0
I0
I0
I0
I0
I0
I0
I0
I0
I0
I0
I0
I2
I2
I2
I5
I5
I6
tp297
(iya
RecordScore
p298
(dp299
g4
g17
sbs(I0
I0
I0
I0
I0
I0
I0
I0
I0
I0
I0
I0
I0
I0
I2
I2
I2
I2
I3
I3
tp300
(iya
RecordScore
p301
(dp302
g4
g91
sbs(I0
I0
I0
I0
I0
I0
I0
I0
I0
I0
I0
I0
I0
I0
I2
I4
I4
I5
I5
I5
tp303
(iya
RecordScore
p304
(dp305
g4
g91
sbs(I0
I0
I0
I0
I0
I0
I0
I0
I0
I0
I0
I0
I0
I0
I2
I2
I3
I4
I5
I5
tp306
(iya
RecordScore
p307
(dp308
g4
g24
sbs(I0
I0
I0
I0
I0
I0
I0
I0
I0
I0
I0
I0
I0
I0
I2
I2
I2
I3
I3
I3
tp309
(iya
RecordScore
p310
(dp311
g4
g91
sbs(I0
I0
I0
I0
I0
I0
I0
I0
I0
I0
I0
I0
I0
I0
I2
I1
I1
I2
I2
I3
tp312
(iya
RecordScore
p313
(dp314
g4
g9
sbs(I0
I0
I0
I0
I0
I0
I0
I0
I0
I0
I0
I0
I0
I0
I2
I1
I3
I4
I4
I6
tp315
(iya
RecordScore
p316
(dp317
g4
g101
sbs(I0
I0
I0
I0
I0
I0
I0
I0
I0
I0
I0
I0
I0
I0
I2
I1
I1
I1
I1
I2
tp318
(iya
RecordScore
p319
(dp320
g4
g28
sbs(I0
I0
I0
I0
I0
I0
I0
I0
I0
I0
I0
I0
I0
I0
I2
I3
I3
I3
I3
I3
tp321
(iya
RecordScore
p322
(dp323
g4
g13
sbs(I0
I0
I0
I0
I0
I0
I0
I0
I0
I0
I0
I0
I0
I0
I2
I5
I5
I5
I6
I6
tp324
(iya
RecordScore
p325
(dp326
g4
g49
sbs(I0
I0
I0
I0
I0
I0
I0
I0
I0
I0
I0
I0
I0
I0
I2
I2
I2
I4
I4
I6
tp327
(iya
RecordScore
p328
(dp329
g4
g101
sbs(I0
I0
I0
I0
I0
I0
I0
I0
I0
I0
I0
I0
I0
I0
I2
I1
I1
I1
I2
I4
tp330
(iya
RecordScore
p331
(dp332
g4
g28
sbs(I0
I0
I0
I0
I0
I0
I0
I0
I0
I0
I0
I0
I0
I0
I2
I1
I2
I3
I6
I6
tp333
(iya
RecordScore
p334
(dp335
g4
g32
sbs(I0
I0
I0
I0
I0
I0
I0
I0
I0
I0
I0
I0
I0
I0
I2
I1
I1
I3
I5
I6
tp336
(iya
RecordScore
p337
(dp338
g4
g28
sbs(I0
I0
I0
I0
I0
I0
I0
I0
I0
I0
I0
I0
I0
I0
I2
I3
I4
I5
I5
I6
tp339
(iya
RecordScore
p340
(dp341
g4
g24
sbs(I0
I0
I0
I0
I0
I0
I0
I0
I0
I0
I0
I0
I0
I0
I2
I1
I1
I1
I1
I4
tp342
(iya
RecordScore
p343
(dp344
g4
g28
sbs(I0
I0
I0
I0
I0
I0
I0
I0
I0
I0
I0
I0
I0
I0
I2
I2
I3
I3
I6
I6
tp345
(iya
RecordScore
p346
(dp347
g4
g32
sbs(I0
I0
I0
I0
I0
I0
I0
I0
I0
I0
I0
I0
I0
I0
I2
I2
I2
I2
I3
I6
tp348
(iya
RecordScore
p349
(dp350
g4
g9
sbs(I0
I0
I0
I0
I0
I0
I0
I0
I0
I0
I0
I0
I0
I0
I2
I1
I2
I2
I4
I4
tp351
(iya
RecordScore
p352
(dp353
g4
g101
sbs(I0
I0
I0
I0
I0
I0
I0
I0
I0
I0
I0
I0
I0
I0
I2
I2
I3
I5
I6
I6
tp354
(iya
RecordScore
p355
(dp356
g4
g36
sbs(I0
I0
I0
I0
I0
I0
I0
I0
I0
I0
I0
I0
I0
I0
I2
I1
I2
I2
I2
I6
tp357
(iya
RecordScore
p358
(dp359
g4
g9
sbs(I0
I0
I0
I0
I0
I0
I0
I0
I0
I0
I0
I0
I0
I0
I2
I1
I4
I4
I5
I6
tp360
(iya
RecordScore
p361
(dp362
g4
g36
sbs(I0
I0
I0
I0
I0
I0
I0
I0
I0
I0
I0
I0
I0
I0
I2
I1
I1
I1
I3
I3
tp363
(iya
RecordScore
p364
(dp365
g4
g91
sbs(I0
I0
I0
I0
I0
I0
I0
I0
I0
I0
I0
I0
I0
I0
I2
I1
I1
I2
I3
I3
tp366
(iya
RecordScore
p367
(dp368
g4
g59
sbs(I0
I0
I0
I0
I0
I0
I0
I0
I0
I0
I0
I0
I0
I0
I2
I1
I1
I3
I3
I3
tp369
(iya
RecordScore
p370
(dp371
g4
g91
sbs(I0
I0
I0
I0
I0
I0
I0
I0
I0
I0
I0
I0
I0
I0
I2
I1
I4
I5
I6
I6
tp372
(iya
RecordScore
p373
(dp374
g4
g36
sbs(I0
I0
I0
I0
I0
I0
I0
I0
I0
I0
I0
I0
I0
I0
I2
I1
I3
I5
I5
I6
tp375
(iya
RecordScore
p376
(dp377
g4
g17
sbs(I0
I0
I0
I0
I0
I0
I0
I0
I0
I0
I0
I0
I0
I0
I2
I4
I5
I5
I5
I6
tp378
(iya
RecordScore
p379
(dp380
g4
g49
sbs(I0
I0
I0
I0
I0
I0
I0
I0
I0
I0
I0
I0
I0
I0
I2
I2
I5
I5
I6
I6
tp381
(iya
RecordScore
p382
(dp383
g4
g36
sbs(I0
I0
I0
I0
I0
I0
I0
I0
I0
I0
I0
I0
I0
I0
I2
I2
I4
I4
I4
I4
tp384
(iya
RecordScore
p385
(dp386
g4
g101
sbs(I0
I0
I0
I0
I0
I0
I0
I0
I0
I0
I0
I0
I0
I0
I2
I1
I4
I4
I4
I4
tp387
(iya
RecordScore
p388
(dp389
g4
g101
sbs(I0
I0
I0
I0
I0
I0
I0
I0
I0
I0
I0
I0
I0
I0
I2
I1
I5
I5
I6
I6
tp390
(iya
RecordScore
p391
(dp392
g4
g36
sbs(I0
I0
I0
I0
I0
I0
I0
I0
I0
I0
I0
I0
I0
I0
I2
I1
I2
I5
I5
I6
tp393
(iya
RecordScore
p394
(dp395
g4
g17
sbs(I0
I0
I0
I0
I0
I0
I0
I0
I0
I0
I0
I0
I0
I0
I2
I1
I1
I5
I6
I6
tp396
(iya
RecordScore
p397
(dp398
g4
g32
sbs(I0
I0
I0
I0
I0
I0
I0
I0
I0
I0
I0
I0
I0
I0
I2
I1
I2
I3
I4
I6
tp399
(iya
RecordScore
p400
(dp401
g4
g24
sbs(I0
I0
I0
I0
I0
I0
I0
I0
I0
I0
I0
I0
I0
I0
I2
I3
I4
I4
I4
I6
tp402
(iya
RecordScore
p403
(dp404
g4
g49
sbs(I0
I0
I0
I0
I0
I0
I0
I0
I0
I0
I0
I0
I0
I0
I2
I2
I4
I5
I6
I6
tp405
(iya
RecordScore
p406
(dp407
g4
g36
sbs(I0
I0
I0
I0
I0
I0
I0
I0
I0
I0
I0
I0
I0
I0
I2
I1
I1
I2
I2
I4
tp408
(iya
RecordScore
p409
(dp410
g4
g9
sbs(I0
I0
I0
I0
I0
I0
I0
I0
I0
I0
I0
I0
I0
I0
I2
I2
I3
I5
I5
I6
tp411
(iya
RecordScore
p412
(dp413
g4
g36
sbs(I0
I0
I0
I0
I0
I0
I0
I0
I0
I0
I0
I0
I0
I0
I2
I2
I2
I3
I3
I4
tp414
(iya
RecordScore
p415
(dp416
g4
g59
sbs(I0
I0
I0
I0
I0
I0
I0
I0
I0
I0
I0
I0
I0
I0
I2
I1
I2
I5
I6
I6
tp417
(iya
RecordScore
p418
(dp419
g4
g32
sbs(I0
I0
I0
I0
I0
I0
I0
I0
I0
I0
I0
I0
I0
I0
I2
I1
I1
I1
I4
I6
tp420
(iya
RecordScore
p421
(dp422
g4
g28
sbs(I0
I0
I0
I0
I0
I0
I0
I0
I0
I0
I0
I0
I0
I0
I2
I3
I3
I3
I3
I4
tp423
(iya
RecordScore
p424
(dp425
g4
g59
sbs(I0
I0
I0
I0
I0
I0
I0
I0
I0
I0
I0
I0
I0
I0
I2
I1
I1
I1
I2
I3
tp426
(iya
RecordScore
p427
(dp428
g4
g28
sbs(I0
I0
I0
I0
I0
I0
I0
I0
I0
I0
I0
I0
I0
I0
I2
I1
I2
I2
I5
I6
tp429
(iya
RecordScore
p430
(dp431
g4
g9
sbs(I0
I0
I0
I0
I0
I0
I0
I0
I0
I0
I0
I0
I0
I0
I2
I3
I3
I5
I6
I6
tp432
(iya
RecordScore
p433
(dp434
g4
g36
sbs(I0
I0
I0
I0
I0
I0
I0
I0
I0
I0
I0
I0
I0
I0
I2
I1
I1
I1
I1
I5
tp435
(iya
RecordScore
p436
(dp437
g4
g28
sbs(I0
I0
I0
I0
I0
I0
I0
I0
I0
I0
I0
I0
I0
I0
I2
I2
I2
I3
I3
I5
tp438
(iya
RecordScore
p439
(dp440
g4
g59
sbs(I0
I0
I0
I0
I0
I0
I0
I0
I0
I0
I0
I0
I0
I0
I2
I1
I3
I3
I6
I6
tp441
(iya
RecordScore
p442
(dp443
g4
g32
sbs(I0
I0
I0
I0
I0
I0
I0
I0
I0
I0
I0
I0
I0
I0
I2
I2
I2
I3
I6
I6
tp444
(iya
RecordScore
p445
(dp446
g4
g32
sbs(I0
I0
I0
I0
I0
I0
I0
I0
I0
I0
I0
I0
I0
I0
I2
I2
I2
I2
I2
I6
tp447
(iya
RecordScore
p448
(dp449
g4
g9
sbs(I0
I0
I0
I0
I0
I0
I0
I0
I0
I0
I0
I0
I0
I0
I2
I1
I2
I4
I4
I6
tp450
(iya
RecordScore
p451
(dp452
g4
g101
sbs(I0
I0
I0
I0
I0
I0
I0
I0
I0
I0
I0
I0
I0
I0
I2
I1
I1
I2
I4
I4
tp453
(iya
RecordScore
p454
(dp455
g4
g101
sbs(I0
I0
I0
I0
I0
I0
I0
I0
I0
I0
I0
I0
I0
I0
I2
I2
I3
I3
I4
I6
tp456
(iya
RecordScore
p457
(dp458
g4
g59
sbs(I0
I0
I0
I0
I0
I0
I0
I0
I0
I0
I0
I0
I0
I0
I2
I1
I1
I3
I3
I4
tp459
(iya
RecordScore
p460
(dp461
g4
g59
sbs(I0
I0
I0
I0
I0
I0
I0
I0
I0
I0
I0
I0
I0
I0
I2
I2
I3
I4
I4
I6
tp462
(iya
RecordScore
p463
(dp464
g4
g101
sbs(I0
I0
I0
I0
I0
I0
I0
I0
I0
I0
I0
I0
I0
I0
I2
I1
I1
I2
I3
I4
tp465
(iya
RecordScore
p466
(dp467
g4
g24
sbs(I0
I0
I0
I0
I0
I0
I0
I0
I0
I0
I0
I0
I0
I0
I2
I3
I3
I4
I4
I4
tp468
(iya
RecordScore
p469
(dp470
g4
g91
sbs(I0
I0
I0
I0
I0
I0
I0
I0
I0
I0
I0
I0
I0
I0
I2
I2
I4
I4
I4
I5
tp471
(iya
RecordScore
p472
(dp473
g4
g101
sbs(I0
I0
I0
I0
I0
I0
I0
I0
I0
I0
I0
I0
I0
I0
I2
I1
I1
I2
I3
I5
tp474
(iya
RecordScore
p475
(dp476
g4
g28
sbs(I0
I0
I0
I0
I0
I0
I0
I0
I0
I0
I0
I0
I0
I0
I2
I3
I3
I3
I6
I6
tp477
(iya
RecordScore
p478
(dp479
g4
g91
sbs(I0
I0
I0
I0
I0
I0
I0
I0
I0
I0
I0
I0
I0
I0
I2
I1
I3
I3
I3
I4
tp480
(iya
RecordScore
p481
(dp482
g4
g59
sbs(I0
I0
I0
I0
I0
I0
I0
I0
I0
I0
I0
I0
I0
I0
I2
I1
I3
I5
I6
I6
tp483
(iya
RecordScore
p484
(dp485
g4
g36
sbs(I0
I0
I0
I0
I0
I0
I0
I0
I0
I0
I0
I0
I0
I0
I2
I6
I6
I6
I6
I6
tp486
(iya
RecordScore
p487
(dp488
g4
g13
sbs(I0
I0
I0
I0
I0
I0
I0
I0
I0
I0
I0
I0
I0
I0
I2
I3
I5
I6
I6
I6
tp489
(iya
RecordScore
p490
(dp491
g4
g49
sbs(I0
I0
I0
I0
I0
I0
I0
I0
I0
I0
I0
I0
I0
I0
I2
I1
I1
I2
I2
I5
tp492
(iya
RecordScore
p493
(dp494
g4
g9
sbs(I0
I0
I0
I0
I0
I0
I0
I0
I0
I0
I0
I0
I0
I0
I2
I1
I3
I4
I4
I4
tp495
(iya
RecordScore
p496
(dp497
g4
g101
sbs(I0
I0
I0
I0
I0
I0
I0
I0
I0
I0
I0
I0
I0
I0
I2
I1
I3
I3
I3
I6
tp498
(iya
RecordScore
p499
(dp500
g4
g59
sbs(I0
I0
I0
I0
I0
I0
I0
I0
I0
I0
I0
I0
I0
I0
I2
I3
I3
I3
I3
I5
tp501
(iya
RecordScore
p502
(dp503
g4
g69
sbs(I0
I0
I0
I0
I0
I0
I0
I0
I0
I0
I0
I0
I0
I0
I2
I4
I4
I6
I6
I6
tp504
(iya
RecordScore
p505
(dp506
g4
g49
sbs(I0
I0
I0
I0
I0
I0
I0
I0
I0
I0
I0
I0
I0
I0
I2
I5
I6
I6
I6
I6
tp507
(iya
RecordScore
p508
(dp509
g4
g69
sbs(I0
I0
I0
I0
I0
I0
I0
I0
I0
I0
I0
I0
I0
I0
I2
I2
I2
I4
I4
I4
tp510
(iya
RecordScore
p511
(dp512
g4
g91
sbs(I0
I0
I0
I0
I0
I0
I0
I0
I0
I0
I0
I0
I0
I0
I2
I2
I2
I3
I5
I5
tp513
(iya
RecordScore
p514
(dp515
g4
g17
sbs(I0
I0
I0
I0
I0
I0
I0
I0
I0
I0
I0
I0
I0
I0
I2
I2
I2
I3
I3
I6
tp516
(iya
RecordScore
p517
(dp518
g4
g59
sbs(I0
I0
I0
I0
I0
I0
I0
I0
I0
I0
I0
I0
I0
I0
I2
I4
I4
I4
I6
I6
tp519
(iya
RecordScore
p520
(dp521
g4
g91
sbs(I0
I0
I0
I0
I0
I0
I0
I0
I0
I0
I0
I0
I0
I0
I2
I3
I4
I4
I6
I6
tp522
(iya
RecordScore
p523
(dp524
g4
g36
sbs(I0
I0
I0
I0
I0
I0
I0
I0
I0
I0
I0
I0
I0
I0
I2
I3
I4
I6
I6
I6
tp525
(iya
RecordScore
p526
(dp527
g4
g49
sbs(I0
I0
I0
I0
I0
I0
I0
I0
I0
I0
I0
I0
I0
I0
I2
I1
I1
I1
I1
I6
tp528
(iya
RecordScore
p529
(dp530
g4
g28
sbs(I0
I0
I0
I0
I0
I0
I0
I0
I0
I0
I0
I0
I0
I0
I2
I1
I1
I1
I6
I6
tp531
(iya
RecordScore
p532
(dp533
g4
g91
sbs(I0
I0
I0
I0
I0
I0
I0
I0
I0
I0
I0
I0
I0
I0
I2
I1
I1
I4
I4
I4
tp534
(iya
RecordScore
p535
(dp536
g4
g91
sbs(I0
I0
I0
I0
I0
I0
I0
I0
I0
I0
I0
I0
I0
I0
I2
I1
I5
I5
I5
I5
tp537
(iya
RecordScore
p538
(dp539
g4
g17
sbs(I0
I0
I0
I0
I0
I0
I0
I0
I0
I0
I0
I0
I0
I0
I2
I1
I1
I3
I6
I6
tp540
(iya
RecordScore
p541
(dp542
g4
g32
sbs(I0
I0
I0
I0
I0
I0
I0
I0
I0
I0
I0
I0
I0
I0
I2
I2
I4
I5
I5
I5
tp543
(iya
RecordScore
p544
(dp545
g4
g17
sbs(I0
I0
I0
I0
I0
I0
I0
I0
I0
I0
I0
I0
I0
I0
I2
I1
I2
I3
I3
I3
tp546
(iya
RecordScore
p547
(dp548
g4
g59
sbs(I0
I0
I0
I0
I0
I0
I0
I0
I0
I0
I0
I0
I0
I0
I2
I1
I3
I4
I5
I6
tp549
(iya
RecordScore
p550
(dp551
g4
g24
sbs(I0
I0
I0
I0
I0
I0
I0
I0
I0
I0
I0
I0
I0
I0
I2
I1
I2
I2
I3
I3
tp552
(iya
RecordScore
p553
(dp554
g4
g59
sbs(I0
I0
I0
I0
I0
I0
I0
I0
I0
I0
I0
I0
I0
I0
I2
I3
I3
I4
I5
I5
tp555
(iya
RecordScore
p556
(dp557
g4
g17
sbs(I0
I0
I0
I0
I0
I0
I0
I0
I0
I0
I0
I0
I0
I0
I2
I2
I3
I3
I3
I3
tp558
(iya
RecordScore
p559
(dp560
g4
g59
sbs(I0
I0
I0
I0
I0
I0
I0
I0
I0
I0
I0
I0
I0
I0
I2
I1
I1
I3
I3
I5
tp561
(iya
RecordScore
p562
(dp563
g4
g59
sbs(I0
I0
I0
I0
I0
I0
I0
I0
I0
I0
I0
I0
I0
I0
I2
I3
I3
I3
I5
I5
tp564
(iya
RecordScore
p565
(dp566
g4
g91
sbs(I0
I0
I0
I0
I0
I0
I0
I0
I0
I0
I0
I0
I0
I0
I2
I4
I5
I6
I6
I6
tp567
(iya
RecordScore
p568
(dp569
g4
g49
sbs(I0
I0
I0
I0
I0
I0
I0
I0
I0
I0
I0
I0
I0
I0
I2
I3
I3
I4
I4
I5
tp570
(iya
RecordScore
p571
(dp572
g4
g101
sbs(I0
I0
I0
I0
I0
I0
I0
I0
I0
I0
I0
I0
I0
I0
I2
I2
I4
I4
I4
I6
tp573
(iya
RecordScore
p574
(dp575
g4
g101
sbs(I0
I0
I0
I0
I0
I0
I0
I0
I0
I0
I0
I0
I0
I0
I2
I1
I2
I4
I6
I6
tp576
(iya
RecordScore
p577
(dp578
g4
g32
sbs(I0
I0
I0
I0
I0
I0
I0
I0
I0
I0
I0
I0
I0
I0
I2
I1
I6
I6
I6
I6
tp579
(iya
RecordScore
p580
(dp581
g4
g69
sbs(I0
I0
I0
I0
I0
I0
I0
I0
I0
I0
I0
I0
I0
I0
I2
I2
I2
I3
I4
I4
tp582
(iya
RecordScore
p583
(dp584
g4
g101
sbs(I0
I0
I0
I0
I0
I0
I0
I0
I0
I0
I0
I0
I0
I0
I2
I2
I2
I2
I4
I4
tp585
(iya
RecordScore
p586
(dp587
g4
g91
sbs(I0
I0
I0
I0
I0
I0
I0
I0
I0
I0
I0
I0
I0
I0
I2
I1
I2
I6
I6
I6
tp588
(iya
RecordScore
p589
(dp590
g4
g32
sbs(I0
I0
I0
I0
I0
I0
I0
I0
I0
I0
I0
I0
I0
I0
I2
I1
I3
I4
I4
I5
tp591
(iya
RecordScore
p592
(dp593
g4
g101
sbs(I0
I0
I0
I0
I0
I0
I0
I0
I0
I0
I0
I0
I0
I0
I2
I2
I3
I4
I6
I6
tp594
(iya
RecordScore
p595
(dp596
g4
g36
sbs(I0
I0
I0
I0
I0
I0
I0
I0
I0
I0
I0
I0
I0
I0
I2
I1
I2
I2
I2
I5
tp597
(iya
RecordScore
p598
(dp599
g4
g9
sbs(I0
I0
I0
I0
I0
I0
I0
I0
I0
I0
I0
I0
I0
I0
I2
I2
I2
I5
I6
I6
tp600
(iya
RecordScore
p601
(dp602
g4
g36
sbs(I0
I0
I0
I0
I0
I0
I0
I0
I0
I0
I0
I0
I0
I0
I2
I1
I1
I2
I2
I6
tp603
(iya
RecordScore
p604
(dp605
g4
g9
sbs(I0
I0
I0
I0
I0
I0
I0
I0
I0
I0
I0
I0
I0
I0
I2
I1
I1
I2
I5
I6
tp606
(iya
RecordScore
p607
(dp608
g4
g28
sbs(I0
I0
I0
I0
I0
I0
I0
I0
I0
I0
I0
I0
I0
I0
I2
I2
I3
I6
I6
I6
tp609
(iya
RecordScore
p610
(dp611
g4
g32
sbs(I0
I0
I0
I0
I0
I0
I0
I0
I0
I0
I0
I0
I0
I0
I2
I3
I3
I3
I3
I6
tp612
(iya
RecordScore
p613
(dp614
g4
g69
sbs(I0
I0
I0
I0
I0
I0
I0
I0
I0
I0
I0
I0
I0
I0
I2
I3
I3
I3
I4
I6
tp615
(iya
RecordScore
p616
(dp617
g4
g59
sbs(I0
I0
I0
I0
I0
I0
I0
I0
I0
I0
I0
I0
I0
I0
I2
I4
I4
I4
I4
I4
tp618
(iya
RecordScore
p619
(dp620
g4
g13
sbs(I0
I0
I0
I0
I0
I0
I0
I0
I0
I0
I0
I0
I0
I0
I2
I2
I2
I4
I4
I5
tp621
(iya
RecordScore
p622
(dp623
g4
g101
sbs(I0
I0
I0
I0
I0
I0
I0
I0
I0
I0
I0
I0
I0
I0
I2
I1
I1
I4
I5
I5
tp624
(iya
RecordScore
p625
(dp626
g4
g17
sbs(I0
I0
I0
I0
I0
I0
I0
I0
I0
I0
I0
I0
I0
I0
I2
I1
I2
I2
I2
I3
tp627
(iya
RecordScore
p628
(dp629
g4
g9
sbs(I0
I0
I0
I0
I0
I0
I0
I0
I0
I0
I0
I0
I0
I0
I2
I5
I5
I5
I5
I5
tp630
(iya
RecordScore
p631
(dp632
g4
g13
sbs(I0
I0
I0
I0
I0
I0
I0
I0
I0
I0
I0
I0
I0
I0
I2
I2
I4
I4
I5
I5
tp633
(iya
RecordScore
p634
(dp635
g4
g17
sbs(I0
I0
I0
I0
I0
I0
I0
I0
I0
I0
I0
I0
I0
I0
I2
I1
I1
I3
I5
I5
tp636
(iya
RecordScore
p637
(dp638
g4
g17
sbs(I0
I0
I0
I0
I0
I0
I0
I0
I0
I0
I0
I0
I0
I0
I2
I2
I2
I2
I5
I6
tp639
(iya
RecordScore
p640
(dp641
g4
g9
sbs(I0
I0
I0
I0
I0
I0
I0
I0
I0
I0
I0
I0
I0
I0
I2
I1
I1
I4
I4
I5
tp642
(iya
RecordScore
p643
(dp644
g4
g101
sbs(I0
I0
I0
I0
I0
I0
I0
I0
I0
I0
I0
I0
I0
I0
I2
I1
I5
I5
I5
I6
tp645
(iya
RecordScore
p646
(dp647
g4
g49
sbs(I0
I0
I0
I0
I0
I0
I0
I0
I0
I0
I0
I0
I0
I0
I2
I3
I3
I5
I5
I5
tp648
(iya
RecordScore
p649
(dp650
g4
g91
sbs(I0
I0
I0
I0
I0
I0
I0
I0
I0
I0
I0
I0
I0
I0
I2
I4
I4
I4
I4
I6
tp651
(iya
RecordScore
p652
(dp653
g4
g69
sbs(I0
I0
I0
I0
I0
I0
I0
I0
I0
I0
I0
I0
I0
I0
I2
I1
I2
I3
I4
I4
tp654
(iya
RecordScore
p655
(dp656
g4
g24
sbs(I0
I0
I0
I0
I0
I0
I0
I0
I0
I0
I0
I0
I0
I0
I2
I2
I2
I4
I5
I6
tp657
(iya
RecordScore
p658
(dp659
g4
g9
sbs(I0
I0
I0
I0
I0
I0
I0
I0
I0
I0
I0
I0
I0
I0
I2
I1
I1
I1
I3
I6
tp660
(iya
RecordScore
p661
(dp662
g4
g28
sbs(I0
I0
I0
I0
I0
I0
I0
I0
I0
I0
I0
I0
I0
I0
I2
I2
I3
I3
I4
I4
tp663
(iya
RecordScore
p664
(dp665
g4
g101
sbs(I0
I0
I0
I0
I0
I0
I0
I0
I0
I0
I0
I0
I0
I0
I2
I2
I6
I6
I6
I6
tp666
(iya
RecordScore
p667
(dp668
g4
g69
sbs(I0
I0
I0
I0
I0
I0
I0
I0
I0
I0
I0
I0
I0
I0
I2
I1
I1
I3
I3
I6
tp669
(iya
RecordScore
p670
(dp671
g4
g59
sbs(I0
I0
I0
I0
I0
I0
I0
I0
I0
I0
I0
I0
I0
I0
I2
I1
I1
I3
I4
I6
tp672
(iya
RecordScore
p673
(dp674
g4
g28
sbs(I0
I0
I0
I0
I0
I0
I0
I0
I0
I0
I0
I0
I0
I0
I2
I3
I5
I5
I5
I6
tp675
(iya
RecordScore
p676
(dp677
g4
g49
sbs(I0
I0
I0
I0
I0
I0
I0
I0
I0
I0
I0
I0
I0
I0
I2
I1
I3
I5
I5
I5
tp678
(iya
RecordScore
p679
(dp680
g4
g17
sbs(I0
I0
I0
I0
I0
I0
I0
I0
I0
I0
I0
I0
I0
I0
I2
I3
I4
I4
I5
I5
tp681
(iya
RecordScore
p682
(dp683
g4
g36
sbs(I0
I0
I0
I0
I0
I0
I0
I0
I0
I0
I0
I0
I0
I0
I2
I2
I2
I2
I5
I5
tp684
(iya
RecordScore
p685
(dp686
g4
g91
sbs(I0
I0
I0
I0
I0
I0
I0
I0
I0
I0
I0
I0
I0
I0
I2
I3
I3
I4
I4
I6
tp687
(iya
RecordScore
p688
(dp689
g4
g36
sbs(I0
I0
I0
I0
I0
I0
I0
I0
I0
I0
I0
I0
I0
I0
I2
I2
I2
I3
I5
I6
tp690
(iya
RecordScore
p691
(dp692
g4
g9
sbs(I0
I0
I0
I0
I0
I0
I0
I0
I0
I0
I0
I0
I0
I0
I2
I2
I2
I5
I5
I5
tp693
(iya
RecordScore
p694
(dp695
g4
g91
sbs(I0
I0
I0
I0
I0
I0
I0
I0
I0
I0
I0
I0
I0
I0
I2
I1
I1
I1
I5
I5
tp696
(iya
RecordScore
p697
(dp698
g4
g91
sbs(I0
I0
I0
I0
I0
I0
I0
I0
I0
I0
I0
I0
I0
I0
I2
I2
I3
I3
I3
I5
tp699
(iya
RecordScore
p700
(dp701
g4
g59
sbs(I0
I0
I0
I0
I0
I0
I0
I0
I0
I0
I0
I0
I0
I0
I2
I2
I2
I2
I4
I5
tp702
(iya
RecordScore
p703
(dp704
g4
g9
sbs(I0
I0
I0
I0
I0
I0
I0
I0
I0
I0
I0
I0
I0
I0
I2
I4
I6
I6
I6
I6
tp705
(iya
RecordScore
p706
(dp707
g4
g69
sbs(I0
I0
I0
I0
I0
I0
I0
I0
I0
I0
I0
I0
I0
I0
I2
I2
I2
I3
I4
I6
tp708
(iya
RecordScore
p709
(dp710
g4
g9
sbs(I0
I0
I0
I0
I0
I0
I0
I0
I0
I0
I0
I0
I0
I0
I2
I1
I1
I2
I5
I5
tp711
(iya
RecordScore
p712
(dp713
g4
g17
sbs(I0
I0
I0
I0
I0
I0
I0
I0
I0
I0
I0
I0
I0
I0
I2
I1
I1
I5
I5
I5
tp714
(iya
RecordScore
p715
(dp716
g4
g91
sbs(I0
I0
I0
I0
I0
I0
I0
I0
I0
I0
I0
I0
I0
I0
I2
I3
I3
I4
I5
I6
tp717
(iya
RecordScore
p718
(dp719
g4
g24
sbs(I0
I0
I0
I0
I0
I0
I0
I0
I0
I0
I0
I0
I0
I0
I2
I2
I4
I4
I6
I6
tp720
(iya
RecordScore
p721
(dp722
g4
g36
sbs(I0
I0
I0
I0
I0
I0
I0
I0
I0
I0
I0
I0
I0
I0
I2
I3
I3
I3
I4
I5
tp723
(iya
RecordScore
p724
(dp725
g4
g59
sbs(I0
I0
I0
I0
I0
I0
I0
I0
I0
I0
I0
I0
I0
I0
I2
I3
I6
I6
I6
I6
tp726
(iya
RecordScore
p727
(dp728
g4
g69
sbs(I0
I0
I0
I0
I0
I0
I0
I0
I0
I0
I0
I0
I0
I0
I2
I4
I4
I5
I5
I6
tp729
(iya
RecordScore
p730
(dp731
g4
g36
sbs(I0
I0
I0
I0
I0
I0
I0
I0
I0
I0
I0
I0
I0
I0
I2
I2
I4
I6
I6
I6
tp732
(iya
RecordScore
p733
(dp734
g4
g49
sbs(I0
I0
I0
I0
I0
I0
I0
I0
I0
I0
I0
I0
I0
I0
I2
I1
I2
I2
I2
I2
tp735
(iya
RecordScore
p736
(dp737
g4
g9
sbs(I0
I0
I0
I0
I0
I0
I0
I0
I0
I0
I0
I0
I0
I0
I2
I5
I5
I5
I5
I6
tp738
(iya
RecordScore
p739
(dp740
g4
g69
sbs(I0
I0
I0
I0
I0
I0
I0
I0
I0
I0
I0
I0
I0
I0
I2
I1
I3
I4
I5
I5
tp741
(iya
RecordScore
p742
(dp743
g4
g17
sbs(I0
I0
I0
I0
I0
I0
I0
I0
I0
I0
I0
I0
I0
I0
I2
I3
I5
I5
I6
I6
tp744
(iya
RecordScore
p745
(dp746
g4
g36
sbs(I0
I0
I0
I0
I0
I0
I0
I0
I0
I0
I0
I0
I0
I0
I2
I1
I3
I3
I4
I5
tp747
(iya
RecordScore
p748
(dp749
g4
g59
sbs(I0
I0
I0
I0
I0
I0
I0
I0
I0
I0
I0
I0
I0
I0
I2
I1
I2
I2
I6
I6
tp750
(iya
RecordScore
p751
(dp752
g4
g32
sbs(I0
I0
I0
I0
I0
I0
I0
I0
I0
I0
I0
I0
I0
I0
I2
I1
I1
I4
I4
I6
tp753
(iya
RecordScore
p754
(dp755
g4
g101
sbs(I0
I0
I0
I0
I0
I0
I0
I0
I0
I0
I0
I0
I0
I0
I2
I2
I2
I3
I4
I5
tp756
(iya
RecordScore
p757
(dp758
g4
g24
sbs(I0
I0
I0
I0
I0
I0
I0
I0
I0
I0
I0
I0
I0
I0
I2
I1
I1
I1
I3
I4
tp759
(iya
RecordScore
p760
(dp761
g4
g28
sbs(I0
I0
I0
I0
I0
I0
I0
I0
I0
I0
I0
I0
I0
I0
I2
I3
I3
I5
I5
I6
tp762
(iya
RecordScore
p763
(dp764
g4
g36
sbs(I0
I0
I0
I0
I0
I0
I0
I0
I0
I0
I0
I0
I0
I0
I2
I1
I3
I3
I5
I5
tp765
(iya
RecordScore
p766
(dp767
g4
g17
sbs(I0
I0
I0
I0
I0
I0
I0
I0
I0
I0
I0
I0
I0
I0
I2
I3
I4
I5
I5
I5
tp768
(iya
RecordScore
p769
(dp770
g4
g49
sbs.