(dp0
(I0
I0
I0
I0
I0
I0
I0
I0
I0
I0
I0
I0
I0
I0
I1
I2
I3
I4
I4
I4
tp1
(iya
RecordScore
p2
(dp3
S'_scoreName'
p4
S'Fours'
p5
sbs(I0
I0
I0
I0
I0
I0
I0
I0
I0
I0
I0
I0
I0
I0
I1
I2
I3
I3
I3
I6
tp6
(iya
RecordScore
p7
(dp8
g4
S'Threes'
p9
sbs(I0
I0
I0
I0
I0
I0
I0
I0
I0
I0
I0
I0
I0
I0
I1
I6
I6
I6
I6
I6
tp10
(iya
RecordScore
p11
(dp12
g4
S'Yahtzee'
p13
sbs(I0
I0
I0
I0
I0
I0
I0
I0
I0
I0
I0
I0
I0
I0
I1
I1
I2
I4
I4
I4
tp14
(iya
RecordScore
p15
(dp16
g4
g5
sbs(I0
I0
I0
I0
I0
I0
I0
I0
I0
I0
I0
I0
I0
I0
I1
I1
I1
I2
I2
I6
tp17
(iya
RecordScore
p18
(dp19
g4
S'Twos'
p20
sbs(I0
I0
I0
I0
I0
I0
I0
I0
I0
I0
I0
I0
I0
I0
I1
I1
I1
I3
I6
I6
tp21
(iya
Roll
p22
(dp23
S'_indices'
p24
(lp25
I0
aI1
aI2
asbs(I0
I0
I0
I0
I0
I0
I0
I0
I0
I0
I0
I0
I0
I0
I1
I3
I4
I4
I5
I6
tp26
(iya
RecordScore
p27
(dp28
g4
S'Small Straight'
p29
sbs(I0
I0
I0
I0
I0
I0
I0
I0
I0
I0
I0
I0
I0
I0
I1
I2
I3
I4
I5
I5
tp30
(iya
Roll
p31
(dp32
g24
(lp33
I3
asbs(I0
I0
I0
I0
I0
I0
I0
I0
I0
I0
I0
I0
I0
I0
I1
I4
I4
I6
I6
I6
tp34
(iya
RecordScore
p35
(dp36
g4
S'3 of a kind'
p37
sbs(I0
I0
I0
I0
I0
I0
I0
I0
I0
I0
I0
I0
I0
I0
I1
I1
I1
I1
I6
I6
tp38
(iya
RecordScore
p39
(dp40
g4
S'Full House'
p41
sbs(I0
I0
I0
I0
I0
I0
I0
I0
I0
I0
I0
I0
I0
I0
I1
I1
I1
I2
I3
I4
tp42
(iya
RecordScore
p43
(dp44
g4
g29
sbs(I0
I0
I0
I0
I0
I0
I0
I0
I0
I0
I0
I0
I0
I0
I1
I1
I6
I6
I6
I6
tp45
(iya
Roll
p46
(dp47
g24
(lp48
I0
asbs(I0
I0
I0
I0
I0
I0
I0
I0
I0
I0
I0
I0
I0
I0
I1
I4
I5
I5
I5
I5
tp49
(iya
RecordScore
p50
(dp51
g4
S'4 of a kind'
p52
sbs(I0
I0
I0
I0
I0
I0
I0
I0
I0
I0
I0
I0
I0
I0
I1
I1
I3
I4
I4
I6
tp53
(iya
RecordScore
p54
(dp55
g4
g5
sbs(I0
I0
I0
I0
I0
I0
I0
I0
I0
I0
I0
I0
I0
I0
I1
I2
I5
I5
I5
I5
tp56
(iya
Roll
p57
(dp58
g24
(lp59
I0
asbs(I0
I0
I0
I0
I0
I0
I0
I0
I0
I0
I0
I0
I0
I0
I1
I1
I1
I5
I6
I6
tp60
(iya
Roll
p61
(dp62
g24
(lp63
I0
aI1
asbs(I0
I0
I0
I0
I0
I0
I0
I0
I0
I0
I0
I0
I0
I0
I1
I3
I4
I5
I5
I5
tp64
(iya
RecordScore
p65
(dp66
g4
g37
sbs(I0
I0
I0
I0
I0
I0
I0
I0
I0
I0
I0
I0
I0
I0
I1
I1
I1
I3
I3
I5
tp67
(iya
RecordScore
p68
(dp69
g4
g9
sbs(I0
I0
I0
I0
I0
I0
I0
I0
I0
I0
I0
I0
I0
I0
I1
I1
I4
I5
I5
I5
tp70
(iya
RecordScore
p71
(dp72
g4
S'Fives'
p73
sbs(I0
I0
I0
I0
I0
I0
I0
I0
I0
I0
I0
I0
I0
I0
I1
I2
I2
I3
I3
I3
tp74
(iya
RecordScore
p75
(dp76
g4
g41
sbs(I0
I0
I0
I0
I0
I0
I0
I0
I0
I0
I0
I0
I0
I0
I1
I2
I2
I2
I3
I3
tp77
(iya
RecordScore
p78
(dp79
g4
g41
sbs(I0
I0
I0
I0
I0
I0
I0
I0
I0
I0
I0
I0
I0
I0
I1
I2
I4
I4
I5
I6
tp80
(iya
RecordScore
p81
(dp82
g4
S'Chance'
p83
sbs(I0
I0
I0
I0
I0
I0
I0
I0
I0
I0
I0
I0
I0
I0
I1
I1
I3
I3
I3
I3
tp84
(iya
Roll
p85
(dp86
g24
(lp87
I0
asbs(I0
I0
I0
I0
I0
I0
I0
I0
I0
I0
I0
I0
I0
I0
I1
I1
I1
I1
I2
I6
tp88
(iya
Roll
p89
(dp90
g24
(lp91
I0
aI1
aI2
aI3
asbs(I0
I0
I0
I0
I0
I0
I0
I0
I0
I0
I0
I0
I0
I0
I1
I1
I2
I3
I4
I5
tp92
(iya
RecordScore
p93
(dp94
g4
S'Large Straight'
p95
sbs(I0
I0
I0
I0
I0
I0
I0
I0
I0
I0
I0
I0
I0
I0
I1
I1
I4
I4
I4
I6
tp96
(iya
RecordScore
p97
(dp98
g4
g5
sbs(I0
I0
I0
I0
I0
I0
I0
I0
I0
I0
I0
I0
I0
I0
I1
I1
I1
I1
I1
I6
tp99
(iya
Roll
p100
(dp101
g24
(lp102
I4
asbs(I0
I0
I0
I0
I0
I0
I0
I0
I0
I0
I0
I0
I0
I0
I1
I1
I2
I2
I2
I5
tp103
(iya
RecordScore
p104
(dp105
g4
g20
sbs(I0
I0
I0
I0
I0
I0
I0
I0
I0
I0
I0
I0
I0
I0
I1
I2
I3
I5
I6
I6
tp106
(iya
RecordScore
p107
(dp108
g4
g83
sbs(I0
I0
I0
I0
I0
I0
I0
I0
I0
I0
I0
I0
I0
I0
I1
I1
I2
I4
I5
I5
tp109
(iya
Roll
p110
(dp111
g24
(lp112
I0
aI1
aI2
asbs(I0
I0
I0
I0
I0
I0
I0
I0
I0
I0
I0
I0
I0
I0
I1
I2
I2
I6
I6
I6
tp113
(iya
RecordScore
p114
(dp115
g4
g41
sbs(I0
I0
I0
I0
I0
I0
I0
I0
I0
I0
I0
I0
I0
I0
I1
I1
I1
I1
I2
I2
tp116
(iya
RecordScore
p117
(dp118
g4
g41
sbs(I0
I0
I0
I0
I0
I0
I0
I0
I0
I0
I0
I0
I0
I0
I1
I1
I3
I4
I6
I6
tp119
(iya
Roll
p120
(dp121
g24
(lp122
I0
aI1
aI2
asbs(I0
I0
I0
I0
I0
I0
I0
I0
I0
I0
I0
I0
I0
I0
I1
I1
I2
I3
I3
I6
tp123
(iya
RecordScore
p124
(dp125
g4
g9
sbs(I0
I0
I0
I0
I0
I0
I0
I0
I0
I0
I0
I0
I0
I0
I1
I1
I2
I5
I6
I6
tp126
(iya
Roll
p127
(dp128
g24
(lp129
I0
aI1
asbs(I0
I0
I0
I0
I0
I0
I0
I0
I0
I0
I0
I0
I0
I0
I1
I4
I4
I4
I5
I5
tp130
(iya
RecordScore
p131
(dp132
g4
g41
sbs(I0
I0
I0
I0
I0
I0
I0
I0
I0
I0
I0
I0
I0
I0
I1
I1
I1
I2
I4
I4
tp133
(iya
RecordScore
p134
(dp135
g4
g5
sbs(I0
I0
I0
I0
I0
I0
I0
I0
I0
I0
I0
I0
I0
I0
I1
I1
I3
I6
I6
I6
tp136
(iya
Roll
p137
(dp138
g24
(lp139
I0
aI1
asbs(I0
I0
I0
I0
I0
I0
I0
I0
I0
I0
I0
I0
I0
I0
I1
I1
I2
I4
I4
I5
tp140
(iya
RecordScore
p141
(dp142
g4
g5
sbs(I0
I0
I0
I0
I0
I0
I0
I0
I0
I0
I0
I0
I0
I0
I1
I1
I1
I2
I2
I5
tp143
(iya
RecordScore
p144
(dp145
g4
g20
sbs(I0
I0
I0
I0
I0
I0
I0
I0
I0
I0
I0
I0
I0
I0
I1
I2
I2
I2
I2
I3
tp146
(iya
Roll
p147
(dp148
g24
(lp149
I4
asbs(I0
I0
I0
I0
I0
I0
I0
I0
I0
I0
I0
I0
I0
I0
I1
I1
I4
I4
I5
I5
tp150
(iya
Roll
p151
(dp152
g24
(lp153
I0
aI1
aI2
asbs(I0
I0
I0
I0
I0
I0
I0
I0
I0
I0
I0
I0
I0
I0
I1
I1
I1
I2
I3
I5
tp154
(iya
Roll
p155
(dp156
g24
(lp157
I0
aI1
asbs(I0
I0
I0
I0
I0
I0
I0
I0
I0
I0
I0
I0
I0
I0
I1
I1
I3
I4
I5
I6
tp158
(iya
RecordScore
p159
(dp160
g4
g29
sbs(I0
I0
I0
I0
I0
I0
I0
I0
I0
I0
I0
I0
I0
I0
I1
I2
I5
I5
I5
I6
tp161
(iya
RecordScore
p162
(dp163
g4
g37
sbs(I0
I0
I0
I0
I0
I0
I0
I0
I0
I0
I0
I0
I0
I0
I1
I4
I6
I6
I6
I6
tp164
(iya
RecordScore
p165
(dp166
g4
g52
sbs(I0
I0
I0
I0
I0
I0
I0
I0
I0
I0
I0
I0
I0
I0
I1
I3
I3
I6
I6
I6
tp167
(iya
RecordScore
p168
(dp169
g4
g41
sbs(I0
I0
I0
I0
I0
I0
I0
I0
I0
I0
I0
I0
I0
I0
I1
I2
I3
I4
I5
I6
tp170
(iya
RecordScore
p171
(dp172
g4
g95
sbs(I0
I0
I0
I0
I0
I0
I0
I0
I0
I0
I0
I0
I0
I0
I1
I3
I3
I3
I4
I4
tp173
(iya
RecordScore
p174
(dp175
g4
g41
sbs(I0
I0
I0
I0
I0
I0
I0
I0
I0
I0
I0
I0
I0
I0
I1
I1
I1
I3
I3
I4
tp176
(iya
RecordScore
p177
(dp178
g4
g9
sbs(I0
I0
I0
I0
I0
I0
I0
I0
I0
I0
I0
I0
I0
I0
I1
I2
I2
I3
I4
I4
tp179
(iya
Roll
p180
(dp181
g24
(lp182
I0
aI3
asbs(I0
I0
I0
I0
I0
I0
I0
I0
I0
I0
I0
I0
I0
I0
I1
I1
I1
I1
I4
I6
tp183
(iya
Roll
p184
(dp185
g24
(lp186
I0
aI1
aI2
asbs(I0
I0
I0
I0
I0
I0
I0
I0
I0
I0
I0
I0
I0
I0
I1
I3
I3
I4
I6
I6
tp187
(iya
RecordScore
p188
(dp189
g4
g83
sbs(I0
I0
I0
I0
I0
I0
I0
I0
I0
I0
I0
I0
I0
I0
I1
I1
I2
I4
I5
I6
tp190
(iya
Roll
p191
(dp192
g24
(lp193
I0
aI1
asbs(I0
I0
I0
I0
I0
I0
I0
I0
I0
I0
I0
I0
I0
I0
I1
I2
I2
I2
I3
I4
tp194
(iya
RecordScore
p195
(dp196
g4
g20
sbs(I0
I0
I0
I0
I0
I0
I0
I0
I0
I0
I0
I0
I0
I0
I1
I1
I3
I3
I4
I4
tp197
(iya
RecordScore
p198
(dp199
g4
g5
sbs(I0
I0
I0
I0
I0
I0
I0
I0
I0
I0
I0
I0
I0
I0
I1
I2
I3
I6
I6
I6
tp200
(iya
Roll
p201
(dp202
g24
(lp203
I0
aI1
asbs(I0
I0
I0
I0
I0
I0
I0
I0
I0
I0
I0
I0
I0
I0
I1
I1
I2
I2
I2
I4
tp204
(iya
RecordScore
p205
(dp206
g4
g20
sbs(I0
I0
I0
I0
I0
I0
I0
I0
I0
I0
I0
I0
I0
I0
I1
I2
I3
I5
I5
I5
tp207
(iya
RecordScore
p208
(dp209
g4
g73
sbs(I0
I0
I0
I0
I0
I0
I0
I0
I0
I0
I0
I0
I0
I0
I1
I1
I2
I2
I5
I5
tp210
(iya
Roll
p211
(dp212
g24
(lp213
I0
aI1
aI2
asbs(I0
I0
I0
I0
I0
I0
I0
I0
I0
I0
I0
I0
I0
I0
I1
I1
I2
I2
I3
I5
tp214
(iya
Roll
p215
(dp216
g24
(lp217
I0
aI1
asbs(I0
I0
I0
I0
I0
I0
I0
I0
I0
I0
I0
I0
I0
I0
I1
I1
I2
I5
I5
I5
tp218
(iya
RecordScore
p219
(dp220
g4
g73
sbs(I0
I0
I0
I0
I0
I0
I0
I0
I0
I0
I0
I0
I0
I0
I1
I1
I1
I1
I1
I5
tp221
(iya
Roll
p222
(dp223
g24
(lp224
I4
asbs(I0
I0
I0
I0
I0
I0
I0
I0
I0
I0
I0
I0
I0
I0
I1
I3
I5
I5
I5
I5
tp225
(iya
Roll
p226
(dp227
g24
(lp228
I0
asbs(I0
I0
I0
I0
I0
I0
I0
I0
I0
I0
I0
I0
I0
I0
I1
I1
I1
I1
I2
I5
tp229
(iya
Roll
p230
(dp231
g24
(lp232
I0
aI1
aI2
aI3
asbs(I0
I0
I0
I0
I0
I0
I0
I0
I0
I0
I0
I0
I0
I0
I1
I1
I2
I2
I4
I5
tp233
(iya
Roll
p234
(dp235
g24
(lp236
I0
aI1
aI2
asbs(I0
I0
I0
I0
I0
I0
I0
I0
I0
I0
I0
I0
I0
I0
I1
I1
I1
I1
I2
I3
tp237
(iya
Roll
p238
(dp239
g24
(lp240
I0
aI1
aI2
aI3
asbs(I0
I0
I0
I0
I0
I0
I0
I0
I0
I0
I0
I0
I0
I0
I1
I2
I2
I3
I3
I4
tp241
(iya
Roll
p242
(dp243
g24
(lp244
I0
aI2
asbs(I0
I0
I0
I0
I0
I0
I0
I0
I0
I0
I0
I0
I0
I0
I1
I2
I3
I3
I3
I4
tp245
(iya
RecordScore
p246
(dp247
g4
g9
sbs(I0
I0
I0
I0
I0
I0
I0
I0
I0
I0
I0
I0
I0
I0
I1
I5
I5
I6
I6
I6
tp248
(iya
RecordScore
p249
(dp250
g4
g37
sbs(I0
I0
I0
I0
I0
I0
I0
I0
I0
I0
I0
I0
I0
I0
I1
I1
I4
I4
I6
I6
tp251
(iya
Roll
p252
(dp253
g24
(lp254
I0
aI1
aI2
asbs(I0
I0
I0
I0
I0
I0
I0
I0
I0
I0
I0
I0
I0
I0
I1
I3
I3
I5
I5
I6
tp255
(iya
RecordScore
p256
(dp257
g4
g83
sbs(I0
I0
I0
I0
I0
I0
I0
I0
I0
I0
I0
I0
I0
I0
I1
I1
I1
I2
I2
I4
tp258
(iya
RecordScore
p259
(dp260
g4
g20
sbs(I0
I0
I0
I0
I0
I0
I0
I0
I0
I0
I0
I0
I0
I0
I1
I1
I2
I3
I3
I4
tp261
(iya
RecordScore
p262
(dp263
g4
g29
sbs(I0
I0
I0
I0
I0
I0
I0
I0
I0
I0
I0
I0
I0
I0
I1
I2
I2
I2
I2
I2
tp264
(iya
RecordScore
p265
(dp266
g4
g13
sbs(I0
I0
I0
I0
I0
I0
I0
I0
I0
I0
I0
I0
I0
I0
I1
I2
I3
I3
I4
I5
tp267
(iya
Roll
p268
(dp269
g24
(lp270
I1
asbs(I0
I0
I0
I0
I0
I0
I0
I0
I0
I0
I0
I0
I0
I0
I1
I1
I1
I3
I5
I6
tp271
(iya
Roll
p272
(dp273
g24
(lp274
I0
aI1
asbs(I0
I0
I0
I0
I0
I0
I0
I0
I0
I0
I0
I0
I0
I0
I1
I1
I5
I6
I6
I6
tp275
(iya
RecordScore
p276
(dp277
g4
g37
sbs(I0
I0
I0
I0
I0
I0
I0
I0
I0
I0
I0
I0
I0
I0
I1
I1
I1
I4
I5
I6
tp278
(iya
Roll
p279
(dp280
g24
(lp281
I0
aI1
asbs(I0
I0
I0
I0
I0
I0
I0
I0
I0
I0
I0
I0
I0
I0
I1
I3
I3
I4
I5
I5
tp282
(iya
Roll
p283
(dp284
g24
(lp285
I0
aI3
asbs(I0
I0
I0
I0
I0
I0
I0
I0
I0
I0
I0
I0
I0
I0
I1
I2
I2
I2
I2
I5
tp286
(iya
Roll
p287
(dp288
g24
(lp289
I4
asbs(I0
I0
I0
I0
I0
I0
I0
I0
I0
I0
I0
I0
I0
I0
I1
I3
I6
I6
I6
I6
tp290
(iya
RecordScore
p291
(dp292
g4
g52
sbs(I0
I0
I0
I0
I0
I0
I0
I0
I0
I0
I0
I0
I0
I0
I1
I2
I3
I3
I5
I5
tp293
(iya
Roll
p294
(dp295
g24
(lp296
I0
aI1
aI2
asbs(I0
I0
I0
I0
I0
I0
I0
I0
I0
I0
I0
I0
I0
I0
I1
I1
I1
I3
I3
I3
tp297
(iya
RecordScore
p298
(dp299
g4
g41
sbs(I0
I0
I0
I0
I0
I0
I0
I0
I0
I0
I0
I0
I0
I0
I1
I2
I2
I3
I4
I5
tp300
(iya
Roll
p301
(dp302
g24
(lp303
I0
asbs(I0
I0
I0
I0
I0
I0
I0
I0
I0
I0
I0
I0
I0
I0
I1
I1
I1
I2
I3
I3
tp304
(iya
RecordScore
p305
(dp306
g4
g9
sbs(I0
I0
I0
I0
I0
I0
I0
I0
I0
I0
I0
I0
I0
I0
I1
I4
I5
I6
I6
I6
tp307
(iya
RecordScore
p308
(dp309
g4
g37
sbs(I0
I0
I0
I0
I0
I0
I0
I0
I0
I0
I0
I0
I0
I0
I1
I1
I1
I1
I3
I3
tp310
(iya
RecordScore
p311
(dp312
g4
g41
sbs(I0
I0
I0
I0
I0
I0
I0
I0
I0
I0
I0
I0
I0
I0
I1
I2
I2
I2
I3
I5
tp313
(iya
RecordScore
p314
(dp315
g4
g20
sbs(I0
I0
I0
I0
I0
I0
I0
I0
I0
I0
I0
I0
I0
I0
I1
I1
I3
I3
I4
I5
tp316
(iya
Roll
p317
(dp318
g24
(lp319
I0
aI1
asbs(I0
I0
I0
I0
I0
I0
I0
I0
I0
I0
I0
I0
I0
I0
I1
I3
I4
I6
I6
I6
tp320
(iya
RecordScore
p321
(dp322
g4
g37
sbs(I0
I0
I0
I0
I0
I0
I0
I0
I0
I0
I0
I0
I0
I0
I1
I1
I1
I6
I6
I6
tp323
(iya
RecordScore
p324
(dp325
g4
g41
sbs(I0
I0
I0
I0
I0
I0
I0
I0
I0
I0
I0
I0
I0
I0
I1
I2
I4
I6
I6
I6
tp326
(iya
RecordScore
p327
(dp328
g4
g37
sbs(I0
I0
I0
I0
I0
I0
I0
I0
I0
I0
I0
I0
I0
I0
I1
I3
I4
I4
I6
I6
tp329
(iya
RecordScore
p330
(dp331
g4
g83
sbs(I0
I0
I0
I0
I0
I0
I0
I0
I0
I0
I0
I0
I0
I0
I1
I5
I5
I5
I5
I6
tp332
(iya
RecordScore
p333
(dp334
g4
g52
sbs(I0
I0
I0
I0
I0
I0
I0
I0
I0
I0
I0
I0
I0
I0
I1
I2
I4
I4
I6
I6
tp335
(iya
RecordScore
p336
(dp337
g4
g83
sbs(I0
I0
I0
I0
I0
I0
I0
I0
I0
I0
I0
I0
I0
I0
I1
I3
I3
I4
I4
I6
tp338
(iya
RecordScore
p339
(dp340
g4
g83
sbs(I0
I0
I0
I0
I0
I0
I0
I0
I0
I0
I0
I0
I0
I0
I1
I1
I1
I1
I1
I4
tp341
(iya
Roll
p342
(dp343
g24
(lp344
I4
asbs(I0
I0
I0
I0
I0
I0
I0
I0
I0
I0
I0
I0
I0
I0
I1
I1
I3
I3
I3
I4
tp345
(iya
RecordScore
p346
(dp347
g4
g9
sbs(I0
I0
I0
I0
I0
I0
I0
I0
I0
I0
I0
I0
I0
I0
I1
I1
I2
I2
I4
I6
tp348
(iya
Roll
p349
(dp350
g24
(lp351
I0
aI1
aI2
asbs(I0
I0
I0
I0
I0
I0
I0
I0
I0
I0
I0
I0
I0
I0
I1
I1
I2
I2
I3
I6
tp352
(iya
RecordScore
p353
(dp354
g4
g20
sbs(I0
I0
I0
I0
I0
I0
I0
I0
I0
I0
I0
I0
I0
I0
I1
I1
I1
I1
I2
I4
tp355
(iya
Roll
p356
(dp357
g24
(lp358
I0
aI1
aI2
aI3
asbs(I0
I0
I0
I0
I0
I0
I0
I0
I0
I0
I0
I0
I0
I0
I1
I1
I1
I4
I6
I6
tp359
(iya
Roll
p360
(dp361
g24
(lp362
I0
aI1
aI2
asbs(I0
I0
I0
I0
I0
I0
I0
I0
I0
I0
I0
I0
I0
I0
I1
I2
I3
I3
I4
I6
tp363
(iya
Roll
p364
(dp365
g24
(lp366
I1
aI4
asbs(I0
I0
I0
I0
I0
I0
I0
I0
I0
I0
I0
I0
I0
I0
I1
I1
I1
I2
I4
I6
tp367
(iya
Roll
p368
(dp369
g24
(lp370
I0
aI1
aI2
asbs(I0
I0
I0
I0
I0
I0
I0
I0
I0
I0
I0
I0
I0
I0
I1
I2
I2
I3
I5
I6
tp371
(iya
Roll
p372
(dp373
g24
(lp374
I0
aI1
asbs(I0
I0
I0
I0
I0
I0
I0
I0
I0
I0
I0
I0
I0
I0
I1
I1
I3
I3
I5
I6
tp375
(iya
RecordScore
p376
(dp377
g4
g9
sbs(I0
I0
I0
I0
I0
I0
I0
I0
I0
I0
I0
I0
I0
I0
I1
I2
I3
I3
I3
I5
tp378
(iya
RecordScore
p379
(dp380
g4
g9
sbs(I0
I0
I0
I0
I0
I0
I0
I0
I0
I0
I0
I0
I0
I0
I1
I2
I2
I5
I5
I5
tp381
(iya
RecordScore
p382
(dp383
g4
g41
sbs(I0
I0
I0
I0
I0
I0
I0
I0
I0
I0
I0
I0
I0
I0
I1
I3
I3
I5
I5
I5
tp384
(iya
RecordScore
p385
(dp386
g4
g41
sbs(I0
I0
I0
I0
I0
I0
I0
I0
I0
I0
I0
I0
I0
I0
I1
I1
I1
I2
I2
I3
tp387
(iya
RecordScore
p388
(dp389
g4
g20
sbs(I0
I0
I0
I0
I0
I0
I0
I0
I0
I0
I0
I0
I0
I0
I1
I2
I2
I2
I5
I5
tp390
(iya
RecordScore
p391
(dp392
g4
g41
sbs(I0
I0
I0
I0
I0
I0
I0
I0
I0
I0
I0
I0
I0
I0
I1
I5
I6
I6
I6
I6
tp393
(iya
RecordScore
p394
(dp395
g4
g52
sbs(I0
I0
I0
I0
I0
I0
I0
I0
I0
I0
I0
I0
I0
I0
I1
I1
I2
I2
I2
I6
tp396
(iya
RecordScore
p397
(dp398
g4
g20
sbs(I0
I0
I0
I0
I0
I0
I0
I0
I0
I0
I0
I0
I0
I0
I1
I1
I1
I4
I5
I5
tp399
(iya
Roll
p400
(dp401
g24
(lp402
I0
aI1
aI2
asbs(I0
I0
I0
I0
I0
I0
I0
I0
I0
I0
I0
I0
I0
I0
I1
I2
I3
I3
I4
I4
tp403
(iya
Roll
p404
(dp405
g24
(lp406
I1
aI3
asbs(I0
I0
I0
I0
I0
I0
I0
I0
I0
I0
I0
I0
I0
I0
I1
I1
I2
I2
I6
I6
tp407
(iya
Roll
p408
(dp409
g24
(lp410
I0
aI1
aI2
asbs(I0
I0
I0
I0
I0
I0
I0
I0
I0
I0
I0
I0
I0
I0
I1
I2
I4
I5
I5
I6
tp411
(iya
RecordScore
p412
(dp413
g4
g83
sbs(I0
I0
I0
I0
I0
I0
I0
I0
I0
I0
I0
I0
I0
I0
I1
I2
I2
I2
I5
I6
tp414
(iya
RecordScore
p415
(dp416
g4
g20
sbs(I0
I0
I0
I0
I0
I0
I0
I0
I0
I0
I0
I0
I0
I0
I1
I1
I2
I3
I4
I4
tp417
(iya
RecordScore
p418
(dp419
g4
g29
sbs(I0
I0
I0
I0
I0
I0
I0
I0
I0
I0
I0
I0
I0
I0
I1
I2
I3
I3
I5
I6
tp420
(iya
RecordScore
p421
(dp422
g4
g9
sbs(I0
I0
I0
I0
I0
I0
I0
I0
I0
I0
I0
I0
I0
I0
I1
I1
I5
I5
I5
I6
tp423
(iya
RecordScore
p424
(dp425
g4
g37
sbs(I0
I0
I0
I0
I0
I0
I0
I0
I0
I0
I0
I0
I0
I0
I1
I1
I2
I2
I2
I2
tp426
(iya
Roll
p427
(dp428
g24
(lp429
I0
asbs(I0
I0
I0
I0
I0
I0
I0
I0
I0
I0
I0
I0
I0
I0
I1
I1
I1
I1
I4
I4
tp430
(iya
RecordScore
p431
(dp432
g4
g41
sbs(I0
I0
I0
I0
I0
I0
I0
I0
I0
I0
I0
I0
I0
I0
I1
I1
I1
I5
I5
I6
tp433
(iya
Roll
p434
(dp435
g24
(lp436
I0
aI1
asbs(I0
I0
I0
I0
I0
I0
I0
I0
I0
I0
I0
I0
I0
I0
I1
I1
I2
I2
I5
I6
tp437
(iya
Roll
p438
(dp439
g24
(lp440
I0
aI1
aI2
asbs(I0
I0
I0
I0
I0
I0
I0
I0
I0
I0
I0
I0
I0
I0
I1
I4
I4
I4
I5
I6
tp441
(iya
RecordScore
p442
(dp443
g4
g37
sbs(I0
I0
I0
I0
I0
I0
I0
I0
I0
I0
I0
I0
I0
I0
I1
I2
I2
I2
I4
I6
tp444
(iya
RecordScore
p445
(dp446
g4
g20
sbs(I0
I0
I0
I0
I0
I0
I0
I0
I0
I0
I0
I0
I0
I0
I1
I2
I4
I4
I5
I5
tp447
(iya
Roll
p448
(dp449
g24
(lp450
I0
aI1
aI2
asbs(I0
I0
I0
I0
I0
I0
I0
I0
I0
I0
I0
I0
I0
I0
I1
I2
I2
I2
I2
I6
tp451
(iya
Roll
p452
(dp453
g24
(lp454
I4
asbs(I0
I0
I0
I0
I0
I0
I0
I0
I0
I0
I0
I0
I0
I0
I1
I2
I2
I2
I3
I6
tp455
(iya
RecordScore
p456
(dp457
g4
g20
sbs(I0
I0
I0
I0
I0
I0
I0
I0
I0
I0
I0
I0
I0
I0
I1
I1
I3
I3
I3
I5
tp458
(iya
RecordScore
p459
(dp460
g4
g9
sbs(I0
I0
I0
I0
I0
I0
I0
I0
I0
I0
I0
I0
I0
I0
I1
I5
I5
I5
I5
I5
tp461
(iya
RecordScore
p462
(dp463
g4
g13
sbs(I0
I0
I0
I0
I0
I0
I0
I0
I0
I0
I0
I0
I0
I0
I1
I1
I1
I1
I3
I5
tp464
(iya
Roll
p465
(dp466
g24
(lp467
I0
aI1
aI2
asbs(I0
I0
I0
I0
I0
I0
I0
I0
I0
I0
I0
I0
I0
I0
I1
I3
I3
I4
I4
I5
tp468
(iya
Roll
p469
(dp470
g24
(lp471
I0
aI2
asbs(I0
I0
I0
I0
I0
I0
I0
I0
I0
I0
I0
I0
I0
I0
I1
I1
I1
I1
I1
I3
tp472
(iya
Roll
p473
(dp474
g24
(lp475
I4
asbs(I0
I0
I0
I0
I0
I0
I0
I0
I0
I0
I0
I0
I0
I0
I1
I1
I3
I4
I4
I5
tp476
(iya
Roll
p477
(dp478
g24
(lp479
I0
aI2
asbs(I0
I0
I0
I0
I0
I0
I0
I0
I0
I0
I0
I0
I0
I0
I1
I2
I2
I3
I5
I5
tp480
(iya
Roll
p481
(dp482
g24
(lp483
I0
aI1
aI2
asbs(I0
I0
I0
I0
I0
I0
I0
I0
I0
I0
I0
I0
I0
I0
I1
I2
I2
I4
I5
I5
tp484
(iya
Roll
p485
(dp486
g24
(lp487
I0
aI1
aI2
asbs(I0
I0
I0
I0
I0
I0
I0
I0
I0
I0
I0
I0
I0
I0
I1
I2
I3
I4
I6
I6
tp488
(iya
Roll
p489
(dp490
g24
(lp491
I0
aI1
aI2
asbs(I0
I0
I0
I0
I0
I0
I0
I0
I0
I0
I0
I0
I0
I0
I1
I3
I4
I4
I4
I6
tp492
(iya
RecordScore
p493
(dp494
g4
g37
sbs(I0
I0
I0
I0
I0
I0
I0
I0
I0
I0
I0
I0
I0
I0
I1
I1
I2
I3
I6
I6
tp495
(iya
Roll
p496
(dp497
g24
(lp498
I0
aI1
aI2
asbs(I0
I0
I0
I0
I0
I0
I0
I0
I0
I0
I0
I0
I0
I0
I1
I1
I3
I4
I5
I5
tp499
(iya
Roll
p500
(dp501
g24
(lp502
I0
aI3
asbs(I0
I0
I0
I0
I0
I0
I0
I0
I0
I0
I0
I0
I0
I0
I1
I1
I2
I4
I6
I6
tp503
(iya
Roll
p504
(dp505
g24
(lp506
I0
aI1
aI2
asbs(I0
I0
I0
I0
I0
I0
I0
I0
I0
I0
I0
I0
I0
I0
I1
I1
I1
I3
I4
I4
tp507
(iya
RecordScore
p508
(dp509
g4
g5
sbs(I0
I0
I0
I0
I0
I0
I0
I0
I0
I0
I0
I0
I0
I0
I1
I1
I1
I2
I2
I2
tp510
(iya
RecordScore
p511
(dp512
g4
g41
sbs(I0
I0
I0
I0
I0
I0
I0
I0
I0
I0
I0
I0
I0
I0
I1
I4
I4
I5
I6
I6
tp513
(iya
RecordScore
p514
(dp515
g4
g83
sbs(I0
I0
I0
I0
I0
I0
I0
I0
I0
I0
I0
I0
I0
I0
I1
I1
I2
I2
I4
I4
tp516
(iya
RecordScore
p517
(dp518
g4
g5
sbs(I0
I0
I0
I0
I0
I0
I0
I0
I0
I0
I0
I0
I0
I0
I1
I1
I1
I4
I4
I6
tp519
(iya
RecordScore
p520
(dp521
g4
g5
sbs(I0
I0
I0
I0
I0
I0
I0
I0
I0
I0
I0
I0
I0
I0
I1
I1
I1
I2
I3
I6
tp522
(iya
Roll
p523
(dp524
g24
(lp525
I0
aI1
aI2
aI3
asbs(I0
I0
I0
I0
I0
I0
I0
I0
I0
I0
I0
I0
I0
I0
I1
I1
I4
I4
I5
I6
tp526
(iya
Roll
p527
(dp528
g24
(lp529
I0
aI1
asbs(I0
I0
I0
I0
I0
I0
I0
I0
I0
I0
I0
I0
I0
I0
I1
I1
I1
I2
I6
I6
tp530
(iya
Roll
p531
(dp532
g24
(lp533
I0
aI1
aI2
asbs(I0
I0
I0
I0
I0
I0
I0
I0
I0
I0
I0
I0
I0
I0
I1
I1
I2
I3
I5
I5
tp534
(iya
Roll
p535
(dp536
g24
(lp537
I0
aI1
aI2
asbs(I0
I0
I0
I0
I0
I0
I0
I0
I0
I0
I0
I0
I0
I0
I1
I2
I4
I5
I5
I5
tp538
(iya
RecordScore
p539
(dp540
g4
g73
sbs(I0
I0
I0
I0
I0
I0
I0
I0
I0
I0
I0
I0
I0
I0
I1
I3
I3
I3
I5
I5
tp541
(iya
RecordScore
p542
(dp543
g4
g41
sbs(I0
I0
I0
I0
I0
I0
I0
I0
I0
I0
I0
I0
I0
I0
I1
I1
I5
I5
I5
I5
tp544
(iya
Roll
p545
(dp546
g24
(lp547
I0
asbs(I0
I0
I0
I0
I0
I0
I0
I0
I0
I0
I0
I0
I0
I0
I1
I1
I2
I2
I2
I3
tp548
(iya
RecordScore
p549
(dp550
g4
g20
sbs(I0
I0
I0
I0
I0
I0
I0
I0
I0
I0
I0
I0
I0
I0
I1
I1
I1
I1
I4
I5
tp551
(iya
Roll
p552
(dp553
g24
(lp554
I0
aI1
aI2
asbs(I0
I0
I0
I0
I0
I0
I0
I0
I0
I0
I0
I0
I0
I0
I1
I1
I2
I3
I3
I5
tp555
(iya
RecordScore
p556
(dp557
g4
g9
sbs(I0
I0
I0
I0
I0
I0
I0
I0
I0
I0
I0
I0
I0
I0
I1
I4
I5
I5
I5
I6
tp558
(iya
RecordScore
p559
(dp560
g4
g37
sbs(I0
I0
I0
I0
I0
I0
I0
I0
I0
I0
I0
I0
I0
I0
I1
I2
I2
I2
I4
I5
tp561
(iya
RecordScore
p562
(dp563
g4
g20
sbs(I0
I0
I0
I0
I0
I0
I0
I0
I0
I0
I0
I0
I0
I0
I1
I1
I1
I2
I5
I6
tp564
(iya
Roll
p565
(dp566
g24
(lp567
I0
aI1
aI2
asbs(I0
I0
I0
I0
I0
I0
I0
I0
I0
I0
I0
I0
I0
I0
I1
I3
I3
I5
I6
I6
tp568
(iya
RecordScore
p569
(dp570
g4
g83
sbs(I0
I0
I0
I0
I0
I0
I0
I0
I0
I0
I0
I0
I0
I0
I1
I3
I4
I5
I5
I6
tp571
(iya
RecordScore
p572
(dp573
g4
g29
sbs(I0
I0
I0
I0
I0
I0
I0
I0
I0
I0
I0
I0
I0
I0
I1
I3
I3
I3
I6
I6
tp574
(iya
RecordScore
p575
(dp576
g4
g41
sbs(I0
I0
I0
I0
I0
I0
I0
I0
I0
I0
I0
I0
I0
I0
I1
I4
I4
I5
I5
I6
tp577
(iya
RecordScore
p578
(dp579
g4
g83
sbs(I0
I0
I0
I0
I0
I0
I0
I0
I0
I0
I0
I0
I0
I0
I1
I1
I1
I1
I3
I4
tp580
(iya
Roll
p581
(dp582
g24
(lp583
I0
aI1
aI2
asbs(I0
I0
I0
I0
I0
I0
I0
I0
I0
I0
I0
I0
I0
I0
I1
I1
I3
I5
I5
I5
tp584
(iya
RecordScore
p585
(dp586
g4
g73
sbs(I0
I0
I0
I0
I0
I0
I0
I0
I0
I0
I0
I0
I0
I0
I1
I3
I3
I4
I4
I4
tp587
(iya
RecordScore
p588
(dp589
g4
g41
sbs(I0
I0
I0
I0
I0
I0
I0
I0
I0
I0
I0
I0
I0
I0
I1
I4
I4
I4
I4
I5
tp590
(iya
Roll
p591
(dp592
g24
(lp593
I4
asbs(I0
I0
I0
I0
I0
I0
I0
I0
I0
I0
I0
I0
I0
I0
I1
I1
I1
I1
I1
I2
tp594
(iya
Roll
p595
(dp596
g24
(lp597
I4
asbs(I0
I0
I0
I0
I0
I0
I0
I0
I0
I0
I0
I0
I0
I0
I1
I1
I3
I3
I3
I6
tp598
(iya
RecordScore
p599
(dp600
g4
g9
sbs(I0
I0
I0
I0
I0
I0
I0
I0
I0
I0
I0
I0
I0
I0
I1
I1
I1
I3
I3
I6
tp601
(iya
RecordScore
p602
(dp603
g4
g9
sbs(I0
I0
I0
I0
I0
I0
I0
I0
I0
I0
I0
I0
I0
I0
I1
I1
I3
I4
I4
I4
tp604
(iya
RecordScore
p605
(dp606
g4
g5
sbs(I0
I0
I0
I0
I0
I0
I0
I0
I0
I0
I0
I0
I0
I0
I1
I1
I2
I2
I3
I4
tp607
(iya
RecordScore
p608
(dp609
g4
g29
sbs(I0
I0
I0
I0
I0
I0
I0
I0
I0
I0
I0
I0
I0
I0
I1
I2
I2
I4
I5
I6
tp610
(iya
Roll
p611
(dp612
g24
(lp613
I0
aI1
asbs(I0
I0
I0
I0
I0
I0
I0
I0
I0
I0
I0
I0
I0
I0
I1
I1
I1
I1
I5
I6
tp614
(iya
Roll
p615
(dp616
g24
(lp617
I0
aI1
aI2
asbs(I0
I0
I0
I0
I0
I0
I0
I0
I0
I0
I0
I0
I0
I0
I1
I2
I2
I4
I6
I6
tp618
(iya
Roll
p619
(dp620
g24
(lp621
I0
aI1
aI2
asbs(I0
I0
I0
I0
I0
I0
I0
I0
I0
I0
I0
I0
I0
I0
I1
I2
I4
I4
I4
I5
tp622
(iya
RecordScore
p623
(dp624
g4
g5
sbs(I0
I0
I0
I0
I0
I0
I0
I0
I0
I0
I0
I0
I0
I0
I1
I2
I3
I3
I3
I3
tp625
(iya
Roll
p626
(dp627
g24
(lp628
I0
asbs(I0
I0
I0
I0
I0
I0
I0
I0
I0
I0
I0
I0
I0
I0
I1
I2
I5
I6
I6
I6
tp629
(iya
RecordScore
p630
(dp631
g4
g37
sbs(I0
I0
I0
I0
I0
I0
I0
I0
I0
I0
I0
I0
I0
I0
I1
I2
I6
I6
I6
I6
tp632
(iya
Roll
p633
(dp634
g24
(lp635
I0
asbs(I0
I0
I0
I0
I0
I0
I0
I0
I0
I0
I0
I0
I0
I0
I1
I1
I1
I3
I4
I5
tp636
(iya
Roll
p637
(dp638
g24
(lp639
I0
aI1
asbs(I0
I0
I0
I0
I0
I0
I0
I0
I0
I0
I0
I0
I0
I0
I1
I1
I2
I2
I3
I3
tp640
(iya
RecordScore
p641
(dp642
g4
g9
sbs(I0
I0
I0
I0
I0
I0
I0
I0
I0
I0
I0
I0
I0
I0
I1
I1
I2
I3
I3
I3
tp643
(iya
RecordScore
p644
(dp645
g4
g9
sbs(I0
I0
I0
I0
I0
I0
I0
I0
I0
I0
I0
I0
I0
I0
I1
I3
I3
I3
I3
I5
tp646
(iya
Roll
p647
(dp648
g24
(lp649
I4
asbs(I0
I0
I0
I0
I0
I0
I0
I0
I0
I0
I0
I0
I0
I0
I1
I3
I5
I6
I6
I6
tp650
(iya
RecordScore
p651
(dp652
g4
g37
sbs(I0
I0
I0
I0
I0
I0
I0
I0
I0
I0
I0
I0
I0
I0
I1
I2
I3
I4
I4
I6
tp653
(iya
Roll
p654
(dp655
g24
(lp656
I2
aI4
asbs(I0
I0
I0
I0
I0
I0
I0
I0
I0
I0
I0
I0
I0
I0
I1
I4
I4
I5
I5
I5
tp657
(iya
RecordScore
p658
(dp659
g4
g41
sbs(I0
I0
I0
I0
I0
I0
I0
I0
I0
I0
I0
I0
I0
I0
I1
I3
I3
I3
I5
I6
tp660
(iya
RecordScore
p661
(dp662
g4
g37
sbs(I0
I0
I0
I0
I0
I0
I0
I0
I0
I0
I0
I0
I0
I0
I1
I1
I2
I4
I4
I6
tp663
(iya
RecordScore
p664
(dp665
g4
g5
sbs(I0
I0
I0
I0
I0
I0
I0
I0
I0
I0
I0
I0
I0
I0
I1
I2
I2
I3
I3
I5
tp666
(iya
RecordScore
p667
(dp668
g4
g9
sbs(I0
I0
I0
I0
I0
I0
I0
I0
I0
I0
I0
I0
I0
I0
I1
I4
I4
I4
I4
I6
tp669
(iya
RecordScore
p670
(dp671
g4
g52
sbs(I0
I0
I0
I0
I0
I0
I0
I0
I0
I0
I0
I0
I0
I0
I1
I2
I2
I3
I6
I6
tp672
(iya
Roll
p673
(dp674
g24
(lp675
I0
aI1
aI2
asbs(I0
I0
I0
I0
I0
I0
I0
I0
I0
I0
I0
I0
I0
I0
I1
I3
I3
I3
I3
I4
tp676
(iya
Roll
p677
(dp678
g24
(lp679
I4
asbs(I0
I0
I0
I0
I0
I0
I0
I0
I0
I0
I0
I0
I0
I0
I1
I2
I2
I5
I6
I6
tp680
(iya
Roll
p681
(dp682
g24
(lp683
I0
aI1
asbs(I0
I0
I0
I0
I0
I0
I0
I0
I0
I0
I0
I0
I0
I0
I1
I1
I3
I3
I6
I6
tp684
(iya
Roll
p685
(dp686
g24
(lp687
I0
aI1
aI2
asbs(I0
I0
I0
I0
I0
I0
I0
I0
I0
I0
I0
I0
I0
I0
I1
I2
I2
I2
I4
I4
tp688
(iya
RecordScore
p689
(dp690
g4
g41
sbs(I0
I0
I0
I0
I0
I0
I0
I0
I0
I0
I0
I0
I0
I0
I1
I1
I3
I5
I6
I6
tp691
(iya
Roll
p692
(dp693
g24
(lp694
I0
aI1
asbs(I0
I0
I0
I0
I0
I0
I0
I0
I0
I0
I0
I0
I0
I0
I1
I2
I4
I4
I4
I6
tp695
(iya
RecordScore
p696
(dp697
g4
g5
sbs(I0
I0
I0
I0
I0
I0
I0
I0
I0
I0
I0
I0
I0
I0
I1
I3
I3
I3
I3
I3
tp698
(iya
RecordScore
p699
(dp700
g4
g13
sbs(I0
I0
I0
I0
I0
I0
I0
I0
I0
I0
I0
I0
I0
I0
I1
I1
I4
I5
I5
I6
tp701
(iya
RecordScore
p702
(dp703
g4
g83
sbs(I0
I0
I0
I0
I0
I0
I0
I0
I0
I0
I0
I0
I0
I0
I1
I1
I1
I2
I5
I5
tp704
(iya
Roll
p705
(dp706
g24
(lp707
I0
aI1
aI2
asbs(I0
I0
I0
I0
I0
I0
I0
I0
I0
I0
I0
I0
I0
I0
I1
I1
I1
I1
I1
I1
tp708
(iya
RecordScore
p709
(dp710
g4
g13
sbs(I0
I0
I0
I0
I0
I0
I0
I0
I0
I0
I0
I0
I0
I0
I1
I3
I5
I5
I5
I6
tp711
(iya
RecordScore
p712
(dp713
g4
g37
sbs(I0
I0
I0
I0
I0
I0
I0
I0
I0
I0
I0
I0
I0
I0
I1
I2
I4
I5
I6
I6
tp714
(iya
RecordScore
p715
(dp716
g4
g83
sbs(I0
I0
I0
I0
I0
I0
I0
I0
I0
I0
I0
I0
I0
I0
I1
I2
I3
I5
I5
I6
tp717
(iya
RecordScore
p718
(dp719
g4
g83
sbs(I0
I0
I0
I0
I0
I0
I0
I0
I0
I0
I0
I0
I0
I0
I1
I1
I1
I1
I5
I5
tp720
(iya
RecordScore
p721
(dp722
g4
g41
sbs(I0
I0
I0
I0
I0
I0
I0
I0
I0
I0
I0
I0
I0
I0
I1
I1
I5
I5
I6
I6
tp723
(iya
RecordScore
p724
(dp725
g4
g83
sbs(I0
I0
I0
I0
I0
I0
I0
I0
I0
I0
I0
I0
I0
I0
I1
I1
I2
I5
I5
I6
tp726
(iya
Roll
p727
(dp728
g24
(lp729
I0
aI1
asbs(I0
I0
I0
I0
I0
I0
I0
I0
I0
I0
I0
I0
I0
I0
I1
I2
I4
I4
I4
I4
tp730
(iya
Roll
p731
(dp732
g24
(lp733
I0
asbs(I0
I0
I0
I0
I0
I0
I0
I0
I0
I0
I0
I0
I0
I0
I1
I2
I2
I2
I2
I4
tp734
(iya
Roll
p735
(dp736
g24
(lp737
I4
asbs(I0
I0
I0
I0
I0
I0
I0
I0
I0
I0
I0
I0
I0
I0
I1
I1
I1
I5
I5
I5
tp738
(iya
RecordScore
p739
(dp740
g4
g41
sbs(I0
I0
I0
I0
I0
I0
I0
I0
I0
I0
I0
I0
I0
I0
I1
I2
I2
I5
I5
I6
tp741
(iya
Roll
p742
(dp743
g24
(lp744
I0
aI1
asbs(I0
I0
I0
I0
I0
I0
I0
I0
I0
I0
I0
I0
I0
I0
I1
I1
I1
I3
I4
I6
tp745
(iya
Roll
p746
(dp747
g24
(lp748
I0
aI1
aI4
asbs(I0
I0
I0
I0
I0
I0
I0
I0
I0
I0
I0
I0
I0
I0
I1
I1
I2
I3
I4
I6
tp749
(iya
RecordScore
p750
(dp751
g4
g29
sbs(I0
I0
I0
I0
I0
I0
I0
I0
I0
I0
I0
I0
I0
I0
I1
I1
I3
I3
I5
I5
tp752
(iya
Roll
p753
(dp754
g24
(lp755
I0
aI1
aI2
asbs(I0
I0
I0
I0
I0
I0
I0
I0
I0
I0
I0
I0
I0
I0
I1
I1
I4
I5
I6
I6
tp756
(iya
RecordScore
p757
(dp758
g4
g83
sbs(I0
I0
I0
I0
I0
I0
I0
I0
I0
I0
I0
I0
I0
I0
I1
I1
I1
I4
I4
I4
tp759
(iya
RecordScore
p760
(dp761
g4
g41
sbs(I0
I0
I0
I0
I0
I0
I0
I0
I0
I0
I0
I0
I0
I0
I1
I1
I4
I4
I4
I4
tp762
(iya
Roll
p763
(dp764
g24
(lp765
I0
asbs(I0
I0
I0
I0
I0
I0
I0
I0
I0
I0
I0
I0
I0
I0
I1
I3
I3
I3
I4
I6
tp766
(iya
RecordScore
p767
(dp768
g4
g9
sbs(I0
I0
I0
I0
I0
I0
I0
I0
I0
I0
I0
I0
I0
I0
I1
I3
I3
I3
I3
I6
tp769
(iya
Roll
p770
(dp771
g24
(lp772
I4
asbs(I0
I0
I0
I0
I0
I0
I0
I0
I0
I0
I0
I0
I0
I0
I1
I1
I1
I3
I5
I5
tp773
(iya
Roll
p774
(dp775
g24
(lp776
I0
aI1
aI2
asbs(I0
I0
I0
I0
I0
I0
I0
I0
I0
I0
I0
I0
I0
I0
I1
I1
I4
I6
I6
I6
tp777
(iya
Roll
p778
(dp779
g24
(lp780
I0
aI1
asbs(I0
I0
I0
I0
I0
I0
I0
I0
I0
I0
I0
I0
I0
I0
I1
I3
I3
I3
I4
I5
tp781
(iya
RecordScore
p782
(dp783
g4
g9
sbs(I0
I0
I0
I0
I0
I0
I0
I0
I0
I0
I0
I0
I0
I0
I1
I2
I3
I3
I6
I6
tp784
(iya
Roll
p785
(dp786
g24
(lp787
I0
aI1
aI2
asbs(I0
I0
I0
I0
I0
I0
I0
I0
I0
I0
I0
I0
I0
I0
I1
I3
I3
I4
I5
I6
tp788
(iya
RecordScore
p789
(dp790
g4
g29
sbs(I0
I0
I0
I0
I0
I0
I0
I0
I0
I0
I0
I0
I0
I0
I1
I2
I2
I4
I4
I4
tp791
(iya
RecordScore
p792
(dp793
g4
g41
sbs(I0
I0
I0
I0
I0
I0
I0
I0
I0
I0
I0
I0
I0
I0
I1
I2
I5
I5
I6
I6
tp794
(iya
RecordScore
p795
(dp796
g4
g83
sbs(I0
I0
I0
I0
I0
I0
I0
I0
I0
I0
I0
I0
I0
I0
I1
I2
I2
I2
I6
I6
tp797
(iya
RecordScore
p798
(dp799
g4
g41
sbs(I0
I0
I0
I0
I0
I0
I0
I0
I0
I0
I0
I0
I0
I0
I1
I4
I4
I4
I6
I6
tp800
(iya
RecordScore
p801
(dp802
g4
g41
sbs(I0
I0
I0
I0
I0
I0
I0
I0
I0
I0
I0
I0
I0
I0
I1
I2
I2
I3
I4
I6
tp803
(iya
Roll
p804
(dp805
g24
(lp806
I0
aI4
asbs(I0
I0
I0
I0
I0
I0
I0
I0
I0
I0
I0
I0
I0
I0
I1
I4
I5
I5
I6
I6
tp807
(iya
RecordScore
p808
(dp809
g4
g83
sbs(I0
I0
I0
I0
I0
I0
I0
I0
I0
I0
I0
I0
I0
I0
I1
I1
I1
I4
I4
I5
tp810
(iya
RecordScore
p811
(dp812
g4
g5
sbs(I0
I0
I0
I0
I0
I0
I0
I0
I0
I0
I0
I0
I0
I0
I1
I1
I1
I1
I3
I6
tp813
(iya
Roll
p814
(dp815
g24
(lp816
I0
aI1
aI2
aI3
asbs(I0
I0
I0
I0
I0
I0
I0
I0
I0
I0
I0
I0
I0
I0
I1
I2
I2
I3
I3
I6
tp817
(iya
RecordScore
p818
(dp819
g4
g9
sbs(I0
I0
I0
I0
I0
I0
I0
I0
I0
I0
I0
I0
I0
I0
I1
I1
I3
I3
I4
I6
tp820
(iya
RecordScore
p821
(dp822
g4
g9
sbs(I0
I0
I0
I0
I0
I0
I0
I0
I0
I0
I0
I0
I0
I0
I1
I4
I4
I4
I4
I4
tp823
(iya
RecordScore
p824
(dp825
g4
g13
sbs(I0
I0
I0
I0
I0
I0
I0
I0
I0
I0
I0
I0
I0
I0
I1
I5
I5
I5
I6
I6
tp826
(iya
RecordScore
p827
(dp828
g4
g37
sbs(I0
I0
I0
I0
I0
I0
I0
I0
I0
I0
I0
I0
I0
I0
I1
I3
I5
I5
I6
I6
tp829
(iya
RecordScore
p830
(dp831
g4
g83
sbs(I0
I0
I0
I0
I0
I0
I0
I0
I0
I0
I0
I0
I0
I0
I1
I2
I2
I4
I4
I6
tp832
(iya
RecordScore
p833
(dp834
g4
g5
sbs(I0
I0
I0
I0
I0
I0
I0
I0
I0
I0
I0
I0
I0
I0
I1
I3
I4
I5
I6
I6
tp835
(iya
RecordScore
p836
(dp837
g4
g29
sbs(I0
I0
I0
I0
I0
I0
I0
I0
I0
I0
I0
I0
I0
I0
I1
I1
I2
I3
I5
I6
tp838
(iya
Roll
p839
(dp840
g24
(lp841
I0
aI1
asbs(I0
I0
I0
I0
I0
I0
I0
I0
I0
I0
I0
I0
I0
I0
I1
I3
I4
I4
I4
I5
tp842
(iya
RecordScore
p843
(dp844
g4
g5
sbs(I0
I0
I0
I0
I0
I0
I0
I0
I0
I0
I0
I0
I0
I0
I1
I1
I4
I4
I4
I5
tp845
(iya
RecordScore
p846
(dp847
g4
g5
sbs(I0
I0
I0
I0
I0
I0
I0
I0
I0
I0
I0
I0
I0
I0
I1
I2
I2
I4
I4
I5
tp848
(iya
RecordScore
p849
(dp850
g4
g5
sbs(I0
I0
I0
I0
I0
I0
I0
I0
I0
I0
I0
I0
I0
I0
I1
I3
I4
I4
I4
I4
tp851
(iya
Roll
p852
(dp853
g24
(lp854
I0
asbs(I0
I0
I0
I0
I0
I0
I0
I0
I0
I0
I0
I0
I0
I0
I1
I1
I2
I6
I6
I6
tp855
(iya
Roll
p856
(dp857
g24
(lp858
I0
aI1
asbs(I0
I0
I0
I0
I0
I0
I0
I0
I0
I0
I0
I0
I0
I0
I1
I1
I3
I5
I5
I6
tp859
(iya
Roll
p860
(dp861
g24
(lp862
I0
aI1
asbs(I0
I0
I0
I0
I0
I0
I0
I0
I0
I0
I0
I0
I0
I0
I1
I1
I1
I2
I4
I5
tp863
(iya
Roll
p864
(dp865
g24
(lp866
I0
aI1
aI2
asbs(I0
I0
I0
I0
I0
I0
I0
I0
I0
I0
I0
I0
I0
I0
I1
I2
I3
I4
I4
I5
tp867
(iya
Roll
p868
(dp869
g24
(lp870
I2
asbs(I0
I0
I0
I0
I0
I0
I0
I0
I0
I0
I0
I0
I0
I0
I1
I3
I4
I4
I5
I5
tp871
(iya
RecordScore
p872
(dp873
g4
g83
sbs.