(dp0
(I0
I0
I0
I0
I0
I0
I0
I0
I0
I0
I0
I0
I0
I0
I2
I1
I2
I3
I4
I5
tp1
F200.15689301420988
s(I0
I0
I0
I0
I0
I0
I0
I0
I0
I0
I0
I0
I0
I0
I2
I2
I2
I2
I2
I5
tp2
F185.0322978601304
s(I0
I0
I0
I0
I0
I0
I0
I0
I0
I0
I0
I0
I0
I0
I2
I1
I1
I1
I1
I1
tp3
F221.7156243769086
s(I0
I0
I0
I0
I0
I0
I0
I0
I0
I0
I0
I0
I0
I0
I2
I2
I2
I4
I5
I5
tp4
F182.1919851658899
s(I0
I0
I0
I0
I0
I0
I0
I0
I0
I0
I0
I0
I0
I0
I2
I1
I2
I2
I3
I5
tp5
F181.03229786013043
s(I0
I0
I0
I0
I0
I0
I0
I0
I0
I0
I0
I0
I0
I0
I2
I3
I3
I5
I5
I5
tp6
F190.97302284744444
s(I0
I0
I0
I0
I0
I0
I0
I0
I0
I0
I0
I0
I0
I0
I2
I2
I3
I3
I4
I5
tp7
F186.71127021579807
s(I0
I0
I0
I0
I0
I0
I0
I0
I0
I0
I0
I0
I0
I0
I2
I1
I1
I3
I4
I5
tp8
F179.56743712095744
s(I0
I0
I0
I0
I0
I0
I0
I0
I0
I0
I0
I0
I0
I0
I2
I1
I4
I6
I6
I6
tp9
F188.36361957768975
s(I0
I0
I0
I0
I0
I0
I0
I0
I0
I0
I0
I0
I0
I0
I2
I4
I4
I5
I6
I6
tp10
F186.98827861050864
s(I0
I0
I0
I0
I0
I0
I0
I0
I0
I0
I0
I0
I0
I0
I2
I3
I4
I4
I5
I6
tp11
F186.71127021579807
s(I0
I0
I0
I0
I0
I0
I0
I0
I0
I0
I0
I0
I0
I0
I2
I1
I2
I3
I3
I4
tp12
F186.71127021579807
s(I0
I0
I0
I0
I0
I0
I0
I0
I0
I0
I0
I0
I0
I0
I2
I1
I4
I4
I6
I6
tp13
F182.98827861050862
s(I0
I0
I0
I0
I0
I0
I0
I0
I0
I0
I0
I0
I0
I0
I2
I2
I5
I6
I6
I6
tp14
F190.23533976400515
s(I0
I0
I0
I0
I0
I0
I0
I0
I0
I0
I0
I0
I0
I0
I2
I1
I1
I2
I3
I6
tp15
F179.56743712095744
s(I0
I0
I0
I0
I0
I0
I0
I0
I0
I0
I0
I0
I0
I0
I2
I1
I1
I1
I5
I6
tp16
F180.56743712095744
s(I0
I0
I0
I0
I0
I0
I0
I0
I0
I0
I0
I0
I0
I0
I2
I2
I3
I3
I3
I4
tp17
F184.50312970589695
s(I0
I0
I0
I0
I0
I0
I0
I0
I0
I0
I0
I0
I0
I0
I2
I2
I2
I2
I4
I6
tp18
F183.0322978601304
s(I0
I0
I0
I0
I0
I0
I0
I0
I0
I0
I0
I0
I0
I0
I2
I1
I2
I3
I5
I6
tp19
F179.03229786013043
s(I0
I0
I0
I0
I0
I0
I0
I0
I0
I0
I0
I0
I0
I0
I2
I4
I5
I5
I5
I5
tp20
F194.85443148939277
s(I0
I0
I0
I0
I0
I0
I0
I0
I0
I0
I0
I0
I0
I0
I2
I2
I2
I3
I3
I6
tp21
F181.50312970589695
s(I0
I0
I0
I0
I0
I0
I0
I0
I0
I0
I0
I0
I0
I0
I2
I1
I1
I5
I5
I6
tp22
F182.1919851658899
s(I0
I0
I0
I0
I0
I0
I0
I0
I0
I0
I0
I0
I0
I0
I2
I2
I3
I3
I5
I6
tp23
F181.50312970589695
s(I0
I0
I0
I0
I0
I0
I0
I0
I0
I0
I0
I0
I0
I0
I2
I3
I3
I4
I6
I6
tp24
F183.98827861050862
s(I0
I0
I0
I0
I0
I0
I0
I0
I0
I0
I0
I0
I0
I0
I2
I1
I3
I3
I3
I5
tp25
F184.50312970589695
s(I0
I0
I0
I0
I0
I0
I0
I0
I0
I0
I0
I0
I0
I0
I2
I1
I2
I5
I5
I5
tp26
F187.19198516588992
s(I0
I0
I0
I0
I0
I0
I0
I0
I0
I0
I0
I0
I0
I0
I2
I3
I3
I3
I4
I4
tp27
F190.97302284744444
s(I0
I0
I0
I0
I0
I0
I0
I0
I0
I0
I0
I0
I0
I0
I2
I3
I3
I6
I6
I6
tp28
F190.97302284744444
s(I0
I0
I0
I0
I0
I0
I0
I0
I0
I0
I0
I0
I0
I0
I2
I2
I2
I2
I5
I5
tp29
F190.97302284744444
s(I0
I0
I0
I0
I0
I0
I0
I0
I0
I0
I0
I0
I0
I0
I2
I3
I4
I4
I4
I5
tp30
F185.9221221633605
s(I0
I0
I0
I0
I0
I0
I0
I0
I0
I0
I0
I0
I0
I0
I2
I1
I2
I2
I5
I5
tp31
F182.1919851658899
s(I0
I0
I0
I0
I0
I0
I0
I0
I0
I0
I0
I0
I0
I0
I2
I2
I3
I5
I5
I5
tp32
F187.19198516588992
s(I0
I0
I0
I0
I0
I0
I0
I0
I0
I0
I0
I0
I0
I0
I2
I2
I2
I3
I4
I4
tp33
F181.92212216336057
s(I0
I0
I0
I0
I0
I0
I0
I0
I0
I0
I0
I0
I0
I0
I2
I3
I4
I4
I6
I6
tp34
F184.98827861050862
s(I0
I0
I0
I0
I0
I0
I0
I0
I0
I0
I0
I0
I0
I0
I2
I1
I1
I1
I4
I5
tp35
F180.56743712095744
s(I0
I0
I0
I0
I0
I0
I0
I0
I0
I0
I0
I0
I0
I0
I2
I1
I3
I3
I4
I4
tp36
F181.92212216336057
s(I0
I0
I0
I0
I0
I0
I0
I0
I0
I0
I0
I0
I0
I0
I2
I3
I4
I5
I6
I6
tp37
F186.71127021579807
s(I0
I0
I0
I0
I0
I0
I0
I0
I0
I0
I0
I0
I0
I0
I2
I1
I4
I5
I5
I6
tp38
F182.98827861050862
s(I0
I0
I0
I0
I0
I0
I0
I0
I0
I0
I0
I0
I0
I0
I2
I2
I3
I4
I5
I6
tp39
F200.15689301420988
s(I0
I0
I0
I0
I0
I0
I0
I0
I0
I0
I0
I0
I0
I0
I2
I1
I2
I2
I2
I4
tp40
F183.0322978601304
s(I0
I0
I0
I0
I0
I0
I0
I0
I0
I0
I0
I0
I0
I0
I2
I1
I3
I3
I5
I6
tp41
F181.50312970589695
s(I0
I0
I0
I0
I0
I0
I0
I0
I0
I0
I0
I0
I0
I0
I2
I2
I5
I5
I5
I6
tp42
F188.23533976400518
s(I0
I0
I0
I0
I0
I0
I0
I0
I0
I0
I0
I0
I0
I0
I2
I2
I2
I2
I2
I2
tp43
F221.7156243769086
s(I0
I0
I0
I0
I0
I0
I0
I0
I0
I0
I0
I0
I0
I0
I2
I1
I1
I2
I6
I6
tp44
F182.3636195776898
s(I0
I0
I0
I0
I0
I0
I0
I0
I0
I0
I0
I0
I0
I0
I2
I4
I4
I4
I4
I6
tp45
F192.85443148939277
s(I0
I0
I0
I0
I0
I0
I0
I0
I0
I0
I0
I0
I0
I0
I2
I1
I2
I2
I3
I6
tp46
F181.03229786013043
s(I0
I0
I0
I0
I0
I0
I0
I0
I0
I0
I0
I0
I0
I0
I2
I1
I2
I2
I4
I6
tp47
F181.03229786013043
s(I0
I0
I0
I0
I0
I0
I0
I0
I0
I0
I0
I0
I0
I0
I2
I1
I1
I4
I6
I6
tp48
F182.3636195776898
s(I0
I0
I0
I0
I0
I0
I0
I0
I0
I0
I0
I0
I0
I0
I2
I1
I4
I4
I5
I5
tp49
F182.1919851658899
s(I0
I0
I0
I0
I0
I0
I0
I0
I0
I0
I0
I0
I0
I0
I2
I1
I1
I2
I4
I5
tp50
F179.56743712095744
s(I0
I0
I0
I0
I0
I0
I0
I0
I0
I0
I0
I0
I0
I0
I2
I2
I3
I4
I4
I5
tp51
F186.71127021579807
s(I0
I0
I0
I0
I0
I0
I0
I0
I0
I0
I0
I0
I0
I0
I2
I1
I1
I3
I4
I4
tp52
F181.92212216336057
s(I0
I0
I0
I0
I0
I0
I0
I0
I0
I0
I0
I0
I0
I0
I2
I1
I1
I6
I6
I6
tp53
F190.97302284744444
s(I0
I0
I0
I0
I0
I0
I0
I0
I0
I0
I0
I0
I0
I0
I2
I2
I2
I2
I2
I4
tp54
F185.0322978601304
s(I0
I0
I0
I0
I0
I0
I0
I0
I0
I0
I0
I0
I0
I0
I2
I3
I3
I4
I5
I6
tp55
F186.71127021579807
s(I0
I0
I0
I0
I0
I0
I0
I0
I0
I0
I0
I0
I0
I0
I2
I1
I2
I4
I4
I5
tp56
F181.92212216336057
s(I0
I0
I0
I0
I0
I0
I0
I0
I0
I0
I0
I0
I0
I0
I2
I2
I2
I2
I3
I5
tp57
F183.0322978601304
s(I0
I0
I0
I0
I0
I0
I0
I0
I0
I0
I0
I0
I0
I0
I2
I1
I3
I6
I6
I6
tp58
F188.36361957768975
s(I0
I0
I0
I0
I0
I0
I0
I0
I0
I0
I0
I0
I0
I0
I2
I1
I2
I3
I5
I5
tp59
F182.1919851658899
s(I0
I0
I0
I0
I0
I0
I0
I0
I0
I0
I0
I0
I0
I0
I2
I1
I2
I4
I5
I5
tp60
F182.1919851658899
s(I0
I0
I0
I0
I0
I0
I0
I0
I0
I0
I0
I0
I0
I0
I2
I1
I3
I4
I6
I6
tp61
F182.3636195776898
s(I0
I0
I0
I0
I0
I0
I0
I0
I0
I0
I0
I0
I0
I0
I2
I2
I2
I6
I6
I6
tp62
F190.97302284744444
s(I0
I0
I0
I0
I0
I0
I0
I0
I0
I0
I0
I0
I0
I0
I2
I2
I3
I3
I5
I5
tp63
F182.1919851658899
s(I0
I0
I0
I0
I0
I0
I0
I0
I0
I0
I0
I0
I0
I0
I2
I1
I4
I4
I4
I6
tp64
F185.9221221633605
s(I0
I0
I0
I0
I0
I0
I0
I0
I0
I0
I0
I0
I0
I0
I2
I2
I2
I4
I6
I6
tp65
F182.3636195776898
s(I0
I0
I0
I0
I0
I0
I0
I0
I0
I0
I0
I0
I0
I0
I2
I3
I4
I4
I4
I4
tp66
F189.9221221633605
s(I0
I0
I0
I0
I0
I0
I0
I0
I0
I0
I0
I0
I0
I0
I2
I2
I2
I2
I6
I6
tp67
F190.97302284744444
s(I0
I0
I0
I0
I0
I0
I0
I0
I0
I0
I0
I0
I0
I0
I2
I1
I1
I4
I5
I6
tp68
F179.56743712095744
s(I0
I0
I0
I0
I0
I0
I0
I0
I0
I0
I0
I0
I0
I0
I2
I1
I1
I2
I2
I2
tp69
F190.97302284744444
s(I0
I0
I0
I0
I0
I0
I0
I0
I0
I0
I0
I0
I0
I0
I2
I1
I1
I1
I3
I6
tp70
F180.56743712095744
s(I0
I0
I0
I0
I0
I0
I0
I0
I0
I0
I0
I0
I0
I0
I2
I2
I4
I4
I5
I6
tp71
F182.98827861050862
s(I0
I0
I0
I0
I0
I0
I0
I0
I0
I0
I0
I0
I0
I0
I2
I1
I1
I1
I4
I4
tp72
F190.97302284744444
s(I0
I0
I0
I0
I0
I0
I0
I0
I0
I0
I0
I0
I0
I0
I2
I4
I4
I4
I5
I5
tp73
F190.97302284744444
s(I0
I0
I0
I0
I0
I0
I0
I0
I0
I0
I0
I0
I0
I0
I2
I1
I4
I5
I5
I5
tp74
F187.19198516588992
s(I0
I0
I0
I0
I0
I0
I0
I0
I0
I0
I0
I0
I0
I0
I2
I2
I3
I3
I4
I4
tp75
F181.92212216336057
s(I0
I0
I0
I0
I0
I0
I0
I0
I0
I0
I0
I0
I0
I0
I2
I1
I1
I1
I2
I5
tp76
F180.56743712095744
s(I0
I0
I0
I0
I0
I0
I0
I0
I0
I0
I0
I0
I0
I0
I2
I4
I4
I4
I4
I5
tp77
F191.85443148939277
s(I0
I0
I0
I0
I0
I0
I0
I0
I0
I0
I0
I0
I0
I0
I2
I2
I5
I5
I5
I5
tp78
F192.85443148939277
s(I0
I0
I0
I0
I0
I0
I0
I0
I0
I0
I0
I0
I0
I0
I2
I2
I2
I2
I2
I3
tp79
F185.0322978601304
s(I0
I0
I0
I0
I0
I0
I0
I0
I0
I0
I0
I0
I0
I0
I2
I1
I1
I1
I1
I3
tp80
F181.5674371209574
s(I0
I0
I0
I0
I0
I0
I0
I0
I0
I0
I0
I0
I0
I0
I2
I1
I1
I1
I3
I5
tp81
F180.56743712095744
s(I0
I0
I0
I0
I0
I0
I0
I0
I0
I0
I0
I0
I0
I0
I2
I1
I2
I2
I4
I5
tp82
F181.03229786013043
s(I0
I0
I0
I0
I0
I0
I0
I0
I0
I0
I0
I0
I0
I0
I2
I3
I5
I5
I5
I5
tp83
F193.85443148939277
s(I0
I0
I0
I0
I0
I0
I0
I0
I0
I0
I0
I0
I0
I0
I2
I1
I2
I3
I3
I6
tp84
F181.50312970589695
s(I0
I0
I0
I0
I0
I0
I0
I0
I0
I0
I0
I0
I0
I0
I2
I1
I2
I4
I4
I4
tp85
F185.9221221633605
s(I0
I0
I0
I0
I0
I0
I0
I0
I0
I0
I0
I0
I0
I0
I2
I1
I1
I2
I4
I6
tp86
F179.56743712095744
s(I0
I0
I0
I0
I0
I0
I0
I0
I0
I0
I0
I0
I0
I0
I2
I2
I3
I3
I3
I6
tp87
F184.50312970589695
s(I0
I0
I0
I0
I0
I0
I0
I0
I0
I0
I0
I0
I0
I0
I2
I2
I3
I4
I4
I4
tp88
F185.9221221633605
s(I0
I0
I0
I0
I0
I0
I0
I0
I0
I0
I0
I0
I0
I0
I2
I3
I3
I3
I5
I6
tp89
F185.23533976400515
s(I0
I0
I0
I0
I0
I0
I0
I0
I0
I0
I0
I0
I0
I0
I2
I2
I2
I2
I3
I4
tp90
F183.0322978601304
s(I0
I0
I0
I0
I0
I0
I0
I0
I0
I0
I0
I0
I0
I0
I2
I1
I2
I4
I5
I6
tp91
F179.9882786105086
s(I0
I0
I0
I0
I0
I0
I0
I0
I0
I0
I0
I0
I0
I0
I2
I5
I5
I6
I6
I6
tp92
F193.23533976400515
s(I0
I0
I0
I0
I0
I0
I0
I0
I0
I0
I0
I0
I0
I0
I2
I3
I3
I3
I3
I3
tp93
F221.7156243769086
s(I0
I0
I0
I0
I0
I0
I0
I0
I0
I0
I0
I0
I0
I0
I2
I1
I4
I4
I4
I5
tp94
F185.9221221633605
s(I0
I0
I0
I0
I0
I0
I0
I0
I0
I0
I0
I0
I0
I0
I2
I1
I3
I3
I3
I3
tp95
F187.503129705897
s(I0
I0
I0
I0
I0
I0
I0
I0
I0
I0
I0
I0
I0
I0
I2
I2
I2
I2
I3
I3
tp96
F190.97302284744444
s(I0
I0
I0
I0
I0
I0
I0
I0
I0
I0
I0
I0
I0
I0
I2
I4
I4
I5
I5
I5
tp97
F190.97302284744444
s(I0
I0
I0
I0
I0
I0
I0
I0
I0
I0
I0
I0
I0
I0
I2
I2
I3
I4
I5
I5
tp98
F186.71127021579807
s(I0
I0
I0
I0
I0
I0
I0
I0
I0
I0
I0
I0
I0
I0
I2
I2
I2
I3
I3
I3
tp99
F190.97302284744444
s(I0
I0
I0
I0
I0
I0
I0
I0
I0
I0
I0
I0
I0
I0
I2
I1
I1
I2
I2
I3
tp100
F181.03229786013043
s(I0
I0
I0
I0
I0
I0
I0
I0
I0
I0
I0
I0
I0
I0
I2
I1
I3
I4
I4
I6
tp101
F181.92212216336057
s(I0
I0
I0
I0
I0
I0
I0
I0
I0
I0
I0
I0
I0
I0
I2
I1
I3
I3
I4
I6
tp102
F181.50312970589695
s(I0
I0
I0
I0
I0
I0
I0
I0
I0
I0
I0
I0
I0
I0
I2
I5
I5
I5
I6
I6
tp103
F192.23533976400515
s(I0
I0
I0
I0
I0
I0
I0
I0
I0
I0
I0
I0
I0
I0
I2
I2
I2
I4
I4
I6
tp104
F181.92212216336057
s(I0
I0
I0
I0
I0
I0
I0
I0
I0
I0
I0
I0
I0
I0
I2
I1
I1
I1
I2
I4
tp105
F180.56743712095744
s(I0
I0
I0
I0
I0
I0
I0
I0
I0
I0
I0
I0
I0
I0
I2
I1
I2
I3
I6
I6
tp106
F182.3636195776898
s(I0
I0
I0
I0
I0
I0
I0
I0
I0
I0
I0
I0
I0
I0
I2
I1
I1
I3
I5
I6
tp107
F179.56743712095744
s(I0
I0
I0
I0
I0
I0
I0
I0
I0
I0
I0
I0
I0
I0
I2
I3
I4
I5
I5
I6
tp108
F186.71127021579807
s(I0
I0
I0
I0
I0
I0
I0
I0
I0
I0
I0
I0
I0
I0
I2
I4
I4
I4
I6
I6
tp109
F190.97302284744444
s(I0
I0
I0
I0
I0
I0
I0
I0
I0
I0
I0
I0
I0
I0
I2
I1
I1
I1
I1
I4
tp110
F181.5674371209574
s(I0
I0
I0
I0
I0
I0
I0
I0
I0
I0
I0
I0
I0
I0
I2
I2
I3
I3
I6
I6
tp111
F182.3636195776898
s(I0
I0
I0
I0
I0
I0
I0
I0
I0
I0
I0
I0
I0
I0
I2
I2
I2
I2
I3
I6
tp112
F183.0322978601304
s(I0
I0
I0
I0
I0
I0
I0
I0
I0
I0
I0
I0
I0
I0
I2
I1
I2
I2
I4
I4
tp113
F181.92212216336057
s(I0
I0
I0
I0
I0
I0
I0
I0
I0
I0
I0
I0
I0
I0
I2
I2
I3
I5
I6
I6
tp114
F183.98827861050862
s(I0
I0
I0
I0
I0
I0
I0
I0
I0
I0
I0
I0
I0
I0
I2
I1
I2
I2
I2
I6
tp115
F183.0322978601304
s(I0
I0
I0
I0
I0
I0
I0
I0
I0
I0
I0
I0
I0
I0
I2
I3
I3
I4
I5
I5
tp116
F182.1919851658899
s(I0
I0
I0
I0
I0
I0
I0
I0
I0
I0
I0
I0
I0
I0
I2
I1
I1
I1
I3
I3
tp117
F190.97302284744444
s(I0
I0
I0
I0
I0
I0
I0
I0
I0
I0
I0
I0
I0
I0
I2
I1
I1
I2
I3
I3
tp118
F181.50312970589695
s(I0
I0
I0
I0
I0
I0
I0
I0
I0
I0
I0
I0
I0
I0
I2
I1
I1
I3
I3
I3
tp119
F190.97302284744444
s(I0
I0
I0
I0
I0
I0
I0
I0
I0
I0
I0
I0
I0
I0
I2
I1
I4
I5
I6
I6
tp120
F183.98827861050862
s(I0
I0
I0
I0
I0
I0
I0
I0
I0
I0
I0
I0
I0
I0
I2
I4
I5
I5
I6
I6
tp121
F187.98827861050867
s(I0
I0
I0
I0
I0
I0
I0
I0
I0
I0
I0
I0
I0
I0
I2
I1
I3
I5
I5
I6
tp122
F182.1919851658899
s(I0
I0
I0
I0
I0
I0
I0
I0
I0
I0
I0
I0
I0
I0
I2
I4
I5
I5
I5
I6
tp123
F190.23533976400515
s(I0
I0
I0
I0
I0
I0
I0
I0
I0
I0
I0
I0
I0
I0
I2
I2
I5
I5
I6
I6
tp124
F185.98827861050862
s(I0
I0
I0
I0
I0
I0
I0
I0
I0
I0
I0
I0
I0
I0
I2
I2
I2
I5
I5
I6
tp125
F182.1919851658899
s(I0
I0
I0
I0
I0
I0
I0
I0
I0
I0
I0
I0
I0
I0
I2
I1
I4
I4
I4
I4
tp126
F189.9221221633605
s(I0
I0
I0
I0
I0
I0
I0
I0
I0
I0
I0
I0
I0
I0
I2
I1
I5
I5
I6
I6
tp127
F184.98827861050862
s(I0
I0
I0
I0
I0
I0
I0
I0
I0
I0
I0
I0
I0
I0
I2
I1
I2
I5
I5
I6
tp128
F182.1919851658899
s(I0
I0
I0
I0
I0
I0
I0
I0
I0
I0
I0
I0
I0
I0
I2
I1
I1
I5
I6
I6
tp129
F182.3636195776898
s(I0
I0
I0
I0
I0
I0
I0
I0
I0
I0
I0
I0
I0
I0
I2
I2
I2
I2
I2
I6
tp130
F185.0322978601304
s(I0
I0
I0
I0
I0
I0
I0
I0
I0
I0
I0
I0
I0
I0
I2
I3
I4
I4
I4
I6
tp131
F186.23533976400518
s(I0
I0
I0
I0
I0
I0
I0
I0
I0
I0
I0
I0
I0
I0
I2
I2
I4
I5
I6
I6
tp132
F184.98827861050862
s(I0
I0
I0
I0
I0
I0
I0
I0
I0
I0
I0
I0
I0
I0
I2
I1
I1
I2
I2
I4
tp133
F181.03229786013043
s(I0
I0
I0
I0
I0
I0
I0
I0
I0
I0
I0
I0
I0
I0
I2
I2
I3
I5
I5
I6
tp134
F182.98827861050862
s(I0
I0
I0
I0
I0
I0
I0
I0
I0
I0
I0
I0
I0
I0
I2
I1
I2
I5
I6
I6
tp135
F182.3636195776898
s(I0
I0
I0
I0
I0
I0
I0
I0
I0
I0
I0
I0
I0
I0
I2
I1
I1
I1
I4
I6
tp136
F180.56743712095744
s(I0
I0
I0
I0
I0
I0
I0
I0
I0
I0
I0
I0
I0
I0
I2
I3
I3
I3
I3
I4
tp137
F187.503129705897
s(I0
I0
I0
I0
I0
I0
I0
I0
I0
I0
I0
I0
I0
I0
I2
I1
I1
I1
I2
I3
tp138
F180.56743712095744
s(I0
I0
I0
I0
I0
I0
I0
I0
I0
I0
I0
I0
I0
I0
I2
I3
I3
I5
I6
I6
tp139
F184.98827861050862
s(I0
I0
I0
I0
I0
I0
I0
I0
I0
I0
I0
I0
I0
I0
I2
I1
I1
I1
I1
I5
tp140
F181.5674371209574
s(I0
I0
I0
I0
I0
I0
I0
I0
I0
I0
I0
I0
I0
I0
I2
I2
I2
I3
I3
I5
tp141
F181.50312970589695
s(I0
I0
I0
I0
I0
I0
I0
I0
I0
I0
I0
I0
I0
I0
I2
I1
I3
I3
I6
I6
tp142
F182.3636195776898
s(I0
I0
I0
I0
I0
I0
I0
I0
I0
I0
I0
I0
I0
I0
I2
I2
I2
I3
I6
I6
tp143
F182.3636195776898
s(I0
I0
I0
I0
I0
I0
I0
I0
I0
I0
I0
I0
I0
I0
I2
I1
I2
I3
I4
I6
tp144
F186.71127021579807
s(I0
I0
I0
I0
I0
I0
I0
I0
I0
I0
I0
I0
I0
I0
I2
I2
I2
I3
I5
I6
tp145
F181.03229786013043
s(I0
I0
I0
I0
I0
I0
I0
I0
I0
I0
I0
I0
I0
I0
I2
I1
I2
I4
I4
I6
tp146
F181.92212216336057
s(I0
I0
I0
I0
I0
I0
I0
I0
I0
I0
I0
I0
I0
I0
I2
I1
I1
I2
I4
I4
tp147
F181.92212216336057
s(I0
I0
I0
I0
I0
I0
I0
I0
I0
I0
I0
I0
I0
I0
I2
I2
I3
I3
I4
I6
tp148
F181.50312970589695
s(I0
I0
I0
I0
I0
I0
I0
I0
I0
I0
I0
I0
I0
I0
I2
I1
I1
I3
I3
I4
tp149
F181.50312970589695
s(I0
I0
I0
I0
I0
I0
I0
I0
I0
I0
I0
I0
I0
I0
I2
I2
I3
I4
I4
I6
tp150
F181.92212216336057
s(I0
I0
I0
I0
I0
I0
I0
I0
I0
I0
I0
I0
I0
I0
I2
I1
I2
I4
I6
I6
tp151
F182.3636195776898
s(I0
I0
I0
I0
I0
I0
I0
I0
I0
I0
I0
I0
I0
I0
I2
I3
I3
I4
I4
I4
tp152
F190.97302284744444
s(I0
I0
I0
I0
I0
I0
I0
I0
I0
I0
I0
I0
I0
I0
I2
I2
I4
I4
I4
I5
tp153
F185.9221221633605
s(I0
I0
I0
I0
I0
I0
I0
I0
I0
I0
I0
I0
I0
I0
I2
I1
I1
I2
I3
I5
tp154
F179.56743712095744
s(I0
I0
I0
I0
I0
I0
I0
I0
I0
I0
I0
I0
I0
I0
I2
I3
I3
I3
I6
I6
tp155
F190.97302284744444
s(I0
I0
I0
I0
I0
I0
I0
I0
I0
I0
I0
I0
I0
I0
I2
I1
I5
I6
I6
I6
tp156
F189.23533976400515
s(I0
I0
I0
I0
I0
I0
I0
I0
I0
I0
I0
I0
I0
I0
I2
I1
I6
I6
I6
I6
tp157
F195.85443148939277
s(I0
I0
I0
I0
I0
I0
I0
I0
I0
I0
I0
I0
I0
I0
I2
I6
I6
I6
I6
I6
tp158
F221.7156243769086
s(I0
I0
I0
I0
I0
I0
I0
I0
I0
I0
I0
I0
I0
I0
I2
I3
I5
I6
I6
I6
tp159
F191.23533976400515
s(I0
I0
I0
I0
I0
I0
I0
I0
I0
I0
I0
I0
I0
I0
I2
I1
I1
I2
I2
I5
tp160
F181.03229786013043
s(I0
I0
I0
I0
I0
I0
I0
I0
I0
I0
I0
I0
I0
I0
I2
I1
I3
I4
I4
I4
tp161
F185.9221221633605
s(I0
I0
I0
I0
I0
I0
I0
I0
I0
I0
I0
I0
I0
I0
I2
I1
I3
I3
I3
I6
tp162
F184.50312970589695
s(I0
I0
I0
I0
I0
I0
I0
I0
I0
I0
I0
I0
I0
I0
I2
I3
I3
I3
I3
I5
tp163
F187.8544314893927
s(I0
I0
I0
I0
I0
I0
I0
I0
I0
I0
I0
I0
I0
I0
I2
I4
I4
I6
I6
I6
tp164
F191.23533976400515
s(I0
I0
I0
I0
I0
I0
I0
I0
I0
I0
I0
I0
I0
I0
I2
I5
I5
I5
I5
I5
tp165
F221.7156243769086
s(I0
I0
I0
I0
I0
I0
I0
I0
I0
I0
I0
I0
I0
I0
I2
I2
I2
I4
I4
I4
tp166
F190.97302284744444
s(I0
I0
I0
I0
I0
I0
I0
I0
I0
I0
I0
I0
I0
I0
I2
I2
I2
I3
I5
I5
tp167
F182.1919851658899
s(I0
I0
I0
I0
I0
I0
I0
I0
I0
I0
I0
I0
I0
I0
I2
I1
I2
I2
I5
I6
tp168
F181.03229786013043
s(I0
I0
I0
I0
I0
I0
I0
I0
I0
I0
I0
I0
I0
I0
I2
I4
I4
I4
I5
I6
tp169
F188.23533976400518
s(I0
I0
I0
I0
I0
I0
I0
I0
I0
I0
I0
I0
I0
I0
I2
I1
I1
I1
I2
I2
tp170
F190.97302284744444
s(I0
I0
I0
I0
I0
I0
I0
I0
I0
I0
I0
I0
I0
I0
I2
I3
I4
I6
I6
I6
tp171
F190.23533976400515
s(I0
I0
I0
I0
I0
I0
I0
I0
I0
I0
I0
I0
I0
I0
I2
I1
I1
I1
I1
I6
tp172
F181.5674371209574
s(I0
I0
I0
I0
I0
I0
I0
I0
I0
I0
I0
I0
I0
I0
I2
I1
I1
I1
I6
I6
tp173
F190.97302284744444
s(I0
I0
I0
I0
I0
I0
I0
I0
I0
I0
I0
I0
I0
I0
I2
I1
I1
I4
I4
I4
tp174
F190.97302284744444
s(I0
I0
I0
I0
I0
I0
I0
I0
I0
I0
I0
I0
I0
I0
I2
I1
I5
I5
I5
I5
tp175
F192.19198516588995
s(I0
I0
I0
I0
I0
I0
I0
I0
I0
I0
I0
I0
I0
I0
I2
I4
I4
I5
I5
I6
tp176
F185.98827861050862
s(I0
I0
I0
I0
I0
I0
I0
I0
I0
I0
I0
I0
I0
I0
I2
I1
I1
I3
I6
I6
tp177
F182.3636195776898
s(I0
I0
I0
I0
I0
I0
I0
I0
I0
I0
I0
I0
I0
I0
I2
I2
I4
I5
I5
I5
tp178
F187.19198516588992
s(I0
I0
I0
I0
I0
I0
I0
I0
I0
I0
I0
I0
I0
I0
I2
I1
I2
I3
I3
I3
tp179
F184.50312970589695
s(I0
I0
I0
I0
I0
I0
I0
I0
I0
I0
I0
I0
I0
I0
I2
I2
I4
I6
I6
I6
tp180
F189.23533976400515
s(I0
I0
I0
I0
I0
I0
I0
I0
I0
I0
I0
I0
I0
I0
I2
I1
I2
I2
I3
I3
tp181
F181.50312970589695
s(I0
I0
I0
I0
I0
I0
I0
I0
I0
I0
I0
I0
I0
I0
I2
I1
I4
I4
I5
I6
tp182
F181.9882786105086
s(I0
I0
I0
I0
I0
I0
I0
I0
I0
I0
I0
I0
I0
I0
I2
I2
I3
I3
I3
I3
tp183
F187.503129705897
s(I0
I0
I0
I0
I0
I0
I0
I0
I0
I0
I0
I0
I0
I0
I2
I1
I1
I3
I3
I5
tp184
F181.50312970589695
s(I0
I0
I0
I0
I0
I0
I0
I0
I0
I0
I0
I0
I0
I0
I2
I3
I3
I3
I5
I5
tp185
F190.97302284744444
s(I0
I0
I0
I0
I0
I0
I0
I0
I0
I0
I0
I0
I0
I0
I2
I4
I5
I6
I6
I6
tp186
F192.23533976400515
s(I0
I0
I0
I0
I0
I0
I0
I0
I0
I0
I0
I0
I0
I0
I2
I3
I3
I4
I4
I5
tp187
F181.92212216336057
s(I0
I0
I0
I0
I0
I0
I0
I0
I0
I0
I0
I0
I0
I0
I2
I2
I4
I4
I4
I6
tp188
F185.9221221633605
s(I0
I0
I0
I0
I0
I0
I0
I0
I0
I0
I0
I0
I0
I0
I2
I1
I1
I2
I3
I4
tp189
F186.71127021579807
s(I0
I0
I0
I0
I0
I0
I0
I0
I0
I0
I0
I0
I0
I0
I2
I1
I3
I5
I6
I6
tp190
F182.98827861050862
s(I0
I0
I0
I0
I0
I0
I0
I0
I0
I0
I0
I0
I0
I0
I2
I1
I1
I1
I2
I6
tp191
F180.56743712095744
s(I0
I0
I0
I0
I0
I0
I0
I0
I0
I0
I0
I0
I0
I0
I2
I2
I2
I2
I4
I4
tp192
F190.97302284744444
s(I0
I0
I0
I0
I0
I0
I0
I0
I0
I0
I0
I0
I0
I0
I2
I1
I2
I6
I6
I6
tp193
F188.36361957768975
s(I0
I0
I0
I0
I0
I0
I0
I0
I0
I0
I0
I0
I0
I0
I2
I2
I3
I6
I6
I6
tp194
F188.36361957768975
s(I0
I0
I0
I0
I0
I0
I0
I0
I0
I0
I0
I0
I0
I0
I2
I2
I3
I4
I6
I6
tp195
F182.98827861050862
s(I0
I0
I0
I0
I0
I0
I0
I0
I0
I0
I0
I0
I0
I0
I2
I2
I2
I5
I6
I6
tp196
F182.98827861050862
s(I0
I0
I0
I0
I0
I0
I0
I0
I0
I0
I0
I0
I0
I0
I2
I1
I1
I2
I2
I6
tp197
F181.03229786013043
s(I0
I0
I0
I0
I0
I0
I0
I0
I0
I0
I0
I0
I0
I0
I2
I1
I1
I2
I5
I6
tp198
F179.56743712095744
s(I0
I0
I0
I0
I0
I0
I0
I0
I0
I0
I0
I0
I0
I0
I2
I1
I3
I4
I4
I5
tp199
F181.92212216336057
s(I0
I0
I0
I0
I0
I0
I0
I0
I0
I0
I0
I0
I0
I0
I2
I3
I3
I3
I3
I6
tp200
F188.85443148939274
s(I0
I0
I0
I0
I0
I0
I0
I0
I0
I0
I0
I0
I0
I0
I2
I3
I3
I3
I4
I6
tp201
F184.50312970589695
s(I0
I0
I0
I0
I0
I0
I0
I0
I0
I0
I0
I0
I0
I0
I2
I4
I4
I4
I4
I4
tp202
F221.7156243769086
s(I0
I0
I0
I0
I0
I0
I0
I0
I0
I0
I0
I0
I0
I0
I2
I2
I2
I4
I4
I5
tp203
F181.92212216336057
s(I0
I0
I0
I0
I0
I0
I0
I0
I0
I0
I0
I0
I0
I0
I2
I1
I1
I4
I5
I5
tp204
F182.1919851658899
s(I0
I0
I0
I0
I0
I0
I0
I0
I0
I0
I0
I0
I0
I0
I2
I1
I2
I2
I2
I3
tp205
F183.0322978601304
s(I0
I0
I0
I0
I0
I0
I0
I0
I0
I0
I0
I0
I0
I0
I2
I2
I4
I5
I5
I6
tp206
F183.98827861050862
s(I0
I0
I0
I0
I0
I0
I0
I0
I0
I0
I0
I0
I0
I0
I2
I2
I4
I4
I5
I5
tp207
F182.1919851658899
s(I0
I0
I0
I0
I0
I0
I0
I0
I0
I0
I0
I0
I0
I0
I2
I1
I1
I3
I5
I5
tp208
F182.1919851658899
s(I0
I0
I0
I0
I0
I0
I0
I0
I0
I0
I0
I0
I0
I0
I2
I1
I1
I4
I4
I5
tp209
F181.92212216336057
s(I0
I0
I0
I0
I0
I0
I0
I0
I0
I0
I0
I0
I0
I0
I2
I1
I5
I5
I5
I6
tp210
F187.23533976400518
s(I0
I0
I0
I0
I0
I0
I0
I0
I0
I0
I0
I0
I0
I0
I2
I1
I3
I4
I5
I6
tp211
F186.71127021579807
s(I0
I0
I0
I0
I0
I0
I0
I0
I0
I0
I0
I0
I0
I0
I2
I1
I1
I1
I1
I2
tp212
F181.5674371209574
s(I0
I0
I0
I0
I0
I0
I0
I0
I0
I0
I0
I0
I0
I0
I2
I1
I2
I3
I4
I4
tp213
F186.71127021579807
s(I0
I0
I0
I0
I0
I0
I0
I0
I0
I0
I0
I0
I0
I0
I2
I2
I4
I4
I6
I6
tp214
F183.98827861050862
s(I0
I0
I0
I0
I0
I0
I0
I0
I0
I0
I0
I0
I0
I0
I2
I2
I2
I4
I5
I6
tp215
F181.03229786013043
s(I0
I0
I0
I0
I0
I0
I0
I0
I0
I0
I0
I0
I0
I0
I2
I1
I2
I2
I3
I4
tp216
F186.71127021579807
s(I0
I0
I0
I0
I0
I0
I0
I0
I0
I0
I0
I0
I0
I0
I2
I2
I2
I2
I5
I6
tp217
F183.0322978601304
s(I0
I0
I0
I0
I0
I0
I0
I0
I0
I0
I0
I0
I0
I0
I2
I2
I6
I6
I6
I6
tp218
F196.85443148939277
s(I0
I0
I0
I0
I0
I0
I0
I0
I0
I0
I0
I0
I0
I0
I2
I1
I1
I3
I3
I6
tp219
F181.50312970589695
s(I0
I0
I0
I0
I0
I0
I0
I0
I0
I0
I0
I0
I0
I0
I2
I1
I1
I3
I4
I6
tp220
F179.56743712095744
s(I0
I0
I0
I0
I0
I0
I0
I0
I0
I0
I0
I0
I0
I0
I2
I3
I5
I5
I5
I6
tp221
F189.23533976400515
s(I0
I0
I0
I0
I0
I0
I0
I0
I0
I0
I0
I0
I0
I0
I2
I1
I3
I5
I5
I5
tp222
F187.19198516588992
s(I0
I0
I0
I0
I0
I0
I0
I0
I0
I0
I0
I0
I0
I0
I2
I3
I4
I4
I5
I5
tp223
F182.98827861050862
s(I0
I0
I0
I0
I0
I0
I0
I0
I0
I0
I0
I0
I0
I0
I2
I1
I2
I3
I3
I5
tp224
F181.50312970589695
s(I0
I0
I0
I0
I0
I0
I0
I0
I0
I0
I0
I0
I0
I0
I2
I3
I3
I4
I4
I6
tp225
F181.9882786105086
s(I0
I0
I0
I0
I0
I0
I0
I0
I0
I0
I0
I0
I0
I0
I2
I1
I1
I1
I3
I4
tp226
F180.56743712095744
s(I0
I0
I0
I0
I0
I0
I0
I0
I0
I0
I0
I0
I0
I0
I2
I2
I2
I5
I5
I5
tp227
F190.97302284744444
s(I0
I0
I0
I0
I0
I0
I0
I0
I0
I0
I0
I0
I0
I0
I2
I1
I1
I1
I5
I5
tp228
F190.97302284744444
s(I0
I0
I0
I0
I0
I0
I0
I0
I0
I0
I0
I0
I0
I0
I2
I2
I3
I3
I3
I5
tp229
F184.50312970589695
s(I0
I0
I0
I0
I0
I0
I0
I0
I0
I0
I0
I0
I0
I0
I2
I2
I2
I2
I4
I5
tp230
F183.0322978601304
s(I0
I0
I0
I0
I0
I0
I0
I0
I0
I0
I0
I0
I0
I0
I2
I4
I6
I6
I6
I6
tp231
F198.85443148939277
s(I0
I0
I0
I0
I0
I0
I0
I0
I0
I0
I0
I0
I0
I0
I2
I2
I2
I3
I4
I6
tp232
F181.03229786013043
s(I0
I0
I0
I0
I0
I0
I0
I0
I0
I0
I0
I0
I0
I0
I2
I1
I1
I2
I5
I5
tp233
F182.1919851658899
s(I0
I0
I0
I0
I0
I0
I0
I0
I0
I0
I0
I0
I0
I0
I2
I1
I1
I5
I5
I5
tp234
F190.97302284744444
s(I0
I0
I0
I0
I0
I0
I0
I0
I0
I0
I0
I0
I0
I0
I2
I1
I3
I3
I3
I4
tp235
F184.50312970589695
s(I0
I0
I0
I0
I0
I0
I0
I0
I0
I0
I0
I0
I0
I0
I2
I2
I2
I3
I4
I5
tp236
F186.71127021579807
s(I0
I0
I0
I0
I0
I0
I0
I0
I0
I0
I0
I0
I0
I0
I2
I3
I3
I3
I4
I5
tp237
F184.50312970589695
s(I0
I0
I0
I0
I0
I0
I0
I0
I0
I0
I0
I0
I0
I0
I2
I3
I6
I6
I6
I6
tp238
F197.85443148939277
s(I0
I0
I0
I0
I0
I0
I0
I0
I0
I0
I0
I0
I0
I0
I2
I2
I4
I4
I4
I4
tp239
F189.9221221633605
s(I0
I0
I0
I0
I0
I0
I0
I0
I0
I0
I0
I0
I0
I0
I2
I5
I6
I6
I6
I6
tp240
F199.8544314893928
s(I0
I0
I0
I0
I0
I0
I0
I0
I0
I0
I0
I0
I0
I0
I2
I2
I2
I3
I3
I4
tp241
F181.50312970589695
s(I0
I0
I0
I0
I0
I0
I0
I0
I0
I0
I0
I0
I0
I0
I2
I1
I2
I2
I2
I2
tp242
F185.0322978601304
s(I0
I0
I0
I0
I0
I0
I0
I0
I0
I0
I0
I0
I0
I0
I2
I5
I5
I5
I5
I6
tp243
F196.85443148939277
s(I0
I0
I0
I0
I0
I0
I0
I0
I0
I0
I0
I0
I0
I0
I2
I3
I3
I5
I5
I6
tp244
F183.98827861050862
s(I0
I0
I0
I0
I0
I0
I0
I0
I0
I0
I0
I0
I0
I0
I2
I3
I5
I5
I6
I6
tp245
F186.98827861050864
s(I0
I0
I0
I0
I0
I0
I0
I0
I0
I0
I0
I0
I0
I0
I2
I1
I3
I3
I4
I5
tp246
F181.50312970589695
s(I0
I0
I0
I0
I0
I0
I0
I0
I0
I0
I0
I0
I0
I0
I2
I1
I2
I2
I6
I6
tp247
F182.3636195776898
s(I0
I0
I0
I0
I0
I0
I0
I0
I0
I0
I0
I0
I0
I0
I2
I1
I1
I4
I4
I6
tp248
F181.92212216336057
s(I0
I0
I0
I0
I0
I0
I0
I0
I0
I0
I0
I0
I0
I0
I2
I1
I2
I2
I2
I5
tp249
F183.0322978601304
s(I0
I0
I0
I0
I0
I0
I0
I0
I0
I0
I0
I0
I0
I0
I2
I1
I3
I4
I5
I5
tp250
F182.1919851658899
s(I0
I0
I0
I0
I0
I0
I0
I0
I0
I0
I0
I0
I0
I0
I2
I1
I3
I3
I5
I5
tp251
F182.1919851658899
s(I0
I0
I0
I0
I0
I0
I0
I0
I0
I0
I0
I0
I0
I0
I2
I3
I4
I5
I5
I5
tp252
F187.23533976400518
s.