(dp0
(I0
I0
I0
I0
I0
I0
I0
I0
I0
I0
I0
I0
I0
I0
I0
I1
I1
I3
I4
I6
tp1
(iya
Roll
p2
(dp3
S'_indices'
p4
(lp5
I0
aI1
aI4
asbs(I0
I0
I0
I0
I0
I0
I0
I0
I0
I0
I0
I0
I0
I0
I0
I2
I2
I3
I4
I6
tp6
(iya
Roll
p7
(dp8
g4
(lp9
I0
aI4
asbs(I0
I0
I0
I0
I0
I0
I0
I0
I0
I0
I0
I0
I0
I0
I0
I1
I1
I1
I3
I4
tp10
(iya
Roll
p11
(dp12
g4
(lp13
I0
aI1
aI2
asbs(I0
I0
I0
I0
I0
I0
I0
I0
I0
I0
I0
I0
I0
I0
I0
I2
I3
I4
I4
I4
tp14
(iya
RecordScore
p15
(dp16
S'_scoreName'
p17
S'Fours'
p18
sbs(I0
I0
I0
I0
I0
I0
I0
I0
I0
I0
I0
I0
I0
I0
I0
I2
I2
I5
I6
I6
tp19
(iya
Roll
p20
(dp21
g4
(lp22
I0
aI1
aI2
asbs(I0
I0
I0
I0
I0
I0
I0
I0
I0
I0
I0
I0
I0
I0
I0
I1
I2
I2
I3
I6
tp23
(iya
Roll
p24
(dp25
g4
(lp26
I0
aI1
aI2
aI3
asbs(I0
I0
I0
I0
I0
I0
I0
I0
I0
I0
I0
I0
I0
I0
I0
I2
I5
I5
I5
I6
tp27
(iya
RecordScore
p28
(dp29
g17
S'3 of a kind'
p30
sbs(I0
I0
I0
I0
I0
I0
I0
I0
I0
I0
I0
I0
I0
I0
I0
I1
I3
I3
I5
I6
tp31
(iya
Roll
p32
(dp33
g4
(lp34
I0
aI1
aI2
asbs(I0
I0
I0
I0
I0
I0
I0
I0
I0
I0
I0
I0
I0
I0
I0
I2
I2
I2
I3
I4
tp35
(iya
RecordScore
p36
(dp37
g17
S'Twos'
p38
sbs(I0
I0
I0
I0
I0
I0
I0
I0
I0
I0
I0
I0
I0
I0
I0
I3
I4
I4
I4
I5
tp39
(iya
RecordScore
p40
(dp41
g17
g18
sbs(I0
I0
I0
I0
I0
I0
I0
I0
I0
I0
I0
I0
I0
I0
I0
I3
I3
I3
I3
I3
tp42
(iya
RecordScore
p43
(dp44
g17
S'Yahtzee'
p45
sbs(I0
I0
I0
I0
I0
I0
I0
I0
I0
I0
I0
I0
I0
I0
I0
I2
I2
I2
I5
I5
tp46
(iya
RecordScore
p47
(dp48
g17
S'Full House'
p49
sbs(I0
I0
I0
I0
I0
I0
I0
I0
I0
I0
I0
I0
I0
I0
I0
I1
I2
I2
I5
I5
tp50
(iya
Roll
p51
(dp52
g4
(lp53
I0
aI1
aI2
asbs(I0
I0
I0
I0
I0
I0
I0
I0
I0
I0
I0
I0
I0
I0
I0
I1
I1
I3
I6
I6
tp54
(iya
Roll
p55
(dp56
g4
(lp57
I0
aI1
aI2
asbs(I0
I0
I0
I0
I0
I0
I0
I0
I0
I0
I0
I0
I0
I0
I0
I1
I1
I1
I2
I3
tp58
(iya
Roll
p59
(dp60
g4
(lp61
I0
aI1
aI2
aI3
asbs(I0
I0
I0
I0
I0
I0
I0
I0
I0
I0
I0
I0
I0
I0
I0
I3
I3
I4
I4
I6
tp62
(iya
RecordScore
p63
(dp64
g17
S'Chance'
p65
sbs(I0
I0
I0
I0
I0
I0
I0
I0
I0
I0
I0
I0
I0
I0
I0
I2
I2
I2
I4
I5
tp66
(iya
RecordScore
p67
(dp68
g17
g38
sbs(I0
I0
I0
I0
I0
I0
I0
I0
I0
I0
I0
I0
I0
I0
I0
I2
I3
I3
I5
I6
tp69
(iya
Roll
p70
(dp71
g4
(lp72
I0
aI1
aI2
asbs(I0
I0
I0
I0
I0
I0
I0
I0
I0
I0
I0
I0
I0
I0
I0
I1
I1
I1
I1
I2
tp73
(iya
Roll
p74
(dp75
g4
(lp76
I4
asbs(I0
I0
I0
I0
I0
I0
I0
I0
I0
I0
I0
I0
I0
I0
I0
I2
I2
I3
I5
I6
tp77
(iya
Roll
p78
(dp79
g4
(lp80
I0
aI1
aI2
asbs(I0
I0
I0
I0
I0
I0
I0
I0
I0
I0
I0
I0
I0
I0
I0
I3
I3
I4
I5
I5
tp81
(iya
Roll
p82
(dp83
g4
(lp84
I0
aI3
asbs(I0
I0
I0
I0
I0
I0
I0
I0
I0
I0
I0
I0
I0
I0
I0
I1
I2
I3
I4
I6
tp85
(iya
RecordScore
p86
(dp87
g17
S'Small Straight'
p88
sbs(I0
I0
I0
I0
I0
I0
I0
I0
I0
I0
I0
I0
I0
I0
I0
I4
I4
I5
I6
I6
tp89
(iya
RecordScore
p90
(dp91
g17
g65
sbs(I0
I0
I0
I0
I0
I0
I0
I0
I0
I0
I0
I0
I0
I0
I0
I1
I4
I5
I5
I6
tp92
(iya
RecordScore
p93
(dp94
g17
g65
sbs(I0
I0
I0
I0
I0
I0
I0
I0
I0
I0
I0
I0
I0
I0
I0
I2
I3
I3
I4
I5
tp95
(iya
Roll
p96
(dp97
g4
(lp98
I1
asbs(I0
I0
I0
I0
I0
I0
I0
I0
I0
I0
I0
I0
I0
I0
I0
I1
I1
I1
I5
I6
tp99
(iya
Roll
p100
(dp101
g4
(lp102
I0
aI1
aI2
asbs(I0
I0
I0
I0
I0
I0
I0
I0
I0
I0
I0
I0
I0
I0
I0
I1
I2
I4
I4
I4
tp103
(iya
RecordScore
p104
(dp105
g17
g18
sbs(I0
I0
I0
I0
I0
I0
I0
I0
I0
I0
I0
I0
I0
I0
I0
I1
I3
I5
I6
I6
tp106
(iya
Roll
p107
(dp108
g4
(lp109
I0
aI1
aI2
asbs(I0
I0
I0
I0
I0
I0
I0
I0
I0
I0
I0
I0
I0
I0
I0
I1
I2
I2
I2
I3
tp110
(iya
RecordScore
p111
(dp112
g17
g38
sbs(I0
I0
I0
I0
I0
I0
I0
I0
I0
I0
I0
I0
I0
I0
I0
I2
I2
I4
I4
I5
tp113
(iya
Roll
p114
(dp115
g4
(lp116
I0
aI2
asbs(I0
I0
I0
I0
I0
I0
I0
I0
I0
I0
I0
I0
I0
I0
I0
I2
I3
I3
I3
I3
tp117
(iya
Roll
p118
(dp119
g4
(lp120
I0
asbs(I0
I0
I0
I0
I0
I0
I0
I0
I0
I0
I0
I0
I0
I0
I0
I1
I1
I1
I5
I5
tp121
(iya
RecordScore
p122
(dp123
g17
g49
sbs(I0
I0
I0
I0
I0
I0
I0
I0
I0
I0
I0
I0
I0
I0
I0
I1
I1
I1
I3
I5
tp124
(iya
Roll
p125
(dp126
g4
(lp127
I0
aI1
aI2
asbs(I0
I0
I0
I0
I0
I0
I0
I0
I0
I0
I0
I0
I0
I0
I0
I1
I1
I1
I1
I3
tp128
(iya
Roll
p129
(dp130
g4
(lp131
I4
asbs(I0
I0
I0
I0
I0
I0
I0
I0
I0
I0
I0
I0
I0
I0
I0
I1
I2
I3
I5
I5
tp132
(iya
Roll
p133
(dp134
g4
(lp135
I0
aI1
aI2
asbs(I0
I0
I0
I0
I0
I0
I0
I0
I0
I0
I0
I0
I0
I0
I0
I3
I4
I5
I6
I6
tp136
(iya
RecordScore
p137
(dp138
g17
g88
sbs(I0
I0
I0
I0
I0
I0
I0
I0
I0
I0
I0
I0
I0
I0
I0
I3
I3
I5
I5
I6
tp139
(iya
RecordScore
p140
(dp141
g17
g65
sbs(I0
I0
I0
I0
I0
I0
I0
I0
I0
I0
I0
I0
I0
I0
I0
I2
I2
I3
I5
I5
tp142
(iya
Roll
p143
(dp144
g4
(lp145
I0
aI1
aI2
asbs(I0
I0
I0
I0
I0
I0
I0
I0
I0
I0
I0
I0
I0
I0
I0
I2
I4
I4
I4
I4
tp146
(iya
Roll
p147
(dp148
g4
(lp149
I0
asbs(I0
I0
I0
I0
I0
I0
I0
I0
I0
I0
I0
I0
I0
I0
I0
I1
I2
I3
I3
I6
tp150
(iya
RecordScore
p151
(dp152
g17
S'Threes'
p153
sbs(I0
I0
I0
I0
I0
I0
I0
I0
I0
I0
I0
I0
I0
I0
I0
I1
I1
I2
I2
I6
tp154
(iya
Roll
p155
(dp156
g4
(lp157
I0
aI1
aI2
aI3
asbs(I0
I0
I0
I0
I0
I0
I0
I0
I0
I0
I0
I0
I0
I0
I0
I3
I4
I4
I4
I4
tp158
(iya
Roll
p159
(dp160
g4
(lp161
I0
asbs(I0
I0
I0
I0
I0
I0
I0
I0
I0
I0
I0
I0
I0
I0
I0
I3
I5
I5
I6
I6
tp162
(iya
RecordScore
p163
(dp164
g17
g65
sbs(I0
I0
I0
I0
I0
I0
I0
I0
I0
I0
I0
I0
I0
I0
I0
I1
I1
I1
I6
I6
tp165
(iya
RecordScore
p166
(dp167
g17
g49
sbs(I0
I0
I0
I0
I0
I0
I0
I0
I0
I0
I0
I0
I0
I0
I0
I1
I2
I2
I5
I6
tp168
(iya
Roll
p169
(dp170
g4
(lp171
I0
aI1
aI2
asbs(I0
I0
I0
I0
I0
I0
I0
I0
I0
I0
I0
I0
I0
I0
I0
I1
I4
I4
I4
I6
tp172
(iya
RecordScore
p173
(dp174
g17
g18
sbs(I0
I0
I0
I0
I0
I0
I0
I0
I0
I0
I0
I0
I0
I0
I0
I1
I1
I1
I2
I2
tp175
(iya
RecordScore
p176
(dp177
g17
g49
sbs(I0
I0
I0
I0
I0
I0
I0
I0
I0
I0
I0
I0
I0
I0
I0
I1
I3
I3
I3
I4
tp178
(iya
RecordScore
p179
(dp180
g17
g153
sbs(I0
I0
I0
I0
I0
I0
I0
I0
I0
I0
I0
I0
I0
I0
I0
I2
I2
I5
I5
I5
tp181
(iya
RecordScore
p182
(dp183
g17
g49
sbs(I0
I0
I0
I0
I0
I0
I0
I0
I0
I0
I0
I0
I0
I0
I0
I1
I4
I4
I6
I6
tp184
(iya
Roll
p185
(dp186
g4
(lp187
I0
aI1
aI2
asbs(I0
I0
I0
I0
I0
I0
I0
I0
I0
I0
I0
I0
I0
I0
I0
I1
I2
I2
I4
I5
tp188
(iya
Roll
p189
(dp190
g4
(lp191
I0
aI1
asbs(I0
I0
I0
I0
I0
I0
I0
I0
I0
I0
I0
I0
I0
I0
I0
I3
I3
I3
I6
I6
tp192
(iya
RecordScore
p193
(dp194
g17
g49
sbs(I0
I0
I0
I0
I0
I0
I0
I0
I0
I0
I0
I0
I0
I0
I0
I2
I3
I4
I5
I6
tp195
(iya
RecordScore
p196
(dp197
g17
S'Large Straight'
p198
sbs(I0
I0
I0
I0
I0
I0
I0
I0
I0
I0
I0
I0
I0
I0
I0
I1
I3
I5
I5
I5
tp199
(iya
Roll
p200
(dp201
g4
(lp202
I0
aI1
asbs(I0
I0
I0
I0
I0
I0
I0
I0
I0
I0
I0
I0
I0
I0
I0
I1
I1
I4
I4
I4
tp203
(iya
RecordScore
p204
(dp205
g17
g49
sbs(I0
I0
I0
I0
I0
I0
I0
I0
I0
I0
I0
I0
I0
I0
I0
I1
I2
I2
I2
I6
tp206
(iya
RecordScore
p207
(dp208
g17
g38
sbs(I0
I0
I0
I0
I0
I0
I0
I0
I0
I0
I0
I0
I0
I0
I0
I1
I1
I3
I3
I6
tp209
(iya
RecordScore
p210
(dp211
g17
g153
sbs(I0
I0
I0
I0
I0
I0
I0
I0
I0
I0
I0
I0
I0
I0
I0
I5
I5
I5
I6
I6
tp212
(iya
RecordScore
p213
(dp214
g17
g30
sbs(I0
I0
I0
I0
I0
I0
I0
I0
I0
I0
I0
I0
I0
I0
I0
I2
I2
I3
I4
I4
tp215
(iya
Roll
p216
(dp217
g4
(lp218
I0
aI3
asbs(I0
I0
I0
I0
I0
I0
I0
I0
I0
I0
I0
I0
I0
I0
I0
I1
I1
I1
I3
I6
tp219
(iya
Roll
p220
(dp221
g4
(lp222
I0
aI1
aI2
aI3
asbs(I0
I0
I0
I0
I0
I0
I0
I0
I0
I0
I0
I0
I0
I0
I0
I2
I4
I5
I6
I6
tp223
(iya
RecordScore
p224
(dp225
g17
g65
sbs(I0
I0
I0
I0
I0
I0
I0
I0
I0
I0
I0
I0
I0
I0
I0
I4
I5
I5
I6
I6
tp226
(iya
RecordScore
p227
(dp228
g17
g65
sbs(I0
I0
I0
I0
I0
I0
I0
I0
I0
I0
I0
I0
I0
I0
I0
I1
I5
I6
I6
I6
tp229
(iya
Roll
p230
(dp231
g4
(lp232
I0
aI1
asbs(I0
I0
I0
I0
I0
I0
I0
I0
I0
I0
I0
I0
I0
I0
I0
I2
I5
I6
I6
I6
tp233
(iya
RecordScore
p234
(dp235
g17
g30
sbs(I0
I0
I0
I0
I0
I0
I0
I0
I0
I0
I0
I0
I0
I0
I0
I1
I1
I5
I6
I6
tp236
(iya
Roll
p237
(dp238
g4
(lp239
I0
aI1
aI2
asbs(I0
I0
I0
I0
I0
I0
I0
I0
I0
I0
I0
I0
I0
I0
I0
I2
I2
I2
I3
I6
tp240
(iya
RecordScore
p241
(dp242
g17
g38
sbs(I0
I0
I0
I0
I0
I0
I0
I0
I0
I0
I0
I0
I0
I0
I0
I1
I2
I5
I6
I6
tp243
(iya
Roll
p244
(dp245
g4
(lp246
I0
aI1
aI2
asbs(I0
I0
I0
I0
I0
I0
I0
I0
I0
I0
I0
I0
I0
I0
I0
I1
I3
I4
I4
I4
tp247
(iya
RecordScore
p248
(dp249
g17
g18
sbs(I0
I0
I0
I0
I0
I0
I0
I0
I0
I0
I0
I0
I0
I0
I0
I2
I4
I4
I4
I5
tp250
(iya
RecordScore
p251
(dp252
g17
g18
sbs(I0
I0
I0
I0
I0
I0
I0
I0
I0
I0
I0
I0
I0
I0
I0
I1
I2
I3
I3
I5
tp253
(iya
Roll
p254
(dp255
g4
(lp256
I0
aI2
asbs(I0
I0
I0
I0
I0
I0
I0
I0
I0
I0
I0
I0
I0
I0
I0
I1
I3
I3
I6
I6
tp257
(iya
Roll
p258
(dp259
g4
(lp260
I0
aI1
aI2
asbs(I0
I0
I0
I0
I0
I0
I0
I0
I0
I0
I0
I0
I0
I0
I0
I2
I2
I4
I5
I5
tp261
(iya
Roll
p262
(dp263
g4
(lp264
I0
aI1
aI2
asbs(I0
I0
I0
I0
I0
I0
I0
I0
I0
I0
I0
I0
I0
I0
I0
I2
I3
I3
I5
I5
tp265
(iya
Roll
p266
(dp267
g4
(lp268
I0
aI1
aI2
asbs(I0
I0
I0
I0
I0
I0
I0
I0
I0
I0
I0
I0
I0
I0
I0
I1
I1
I3
I4
I4
tp269
(iya
RecordScore
p270
(dp271
g17
g18
sbs(I0
I0
I0
I0
I0
I0
I0
I0
I0
I0
I0
I0
I0
I0
I0
I1
I1
I1
I2
I5
tp272
(iya
Roll
p273
(dp274
g4
(lp275
I0
aI1
aI2
aI3
asbs(I0
I0
I0
I0
I0
I0
I0
I0
I0
I0
I0
I0
I0
I0
I0
I3
I3
I4
I4
I4
tp276
(iya
RecordScore
p277
(dp278
g17
g49
sbs(I0
I0
I0
I0
I0
I0
I0
I0
I0
I0
I0
I0
I0
I0
I0
I3
I3
I3
I3
I6
tp279
(iya
Roll
p280
(dp281
g4
(lp282
I4
asbs(I0
I0
I0
I0
I0
I0
I0
I0
I0
I0
I0
I0
I0
I0
I0
I1
I3
I3
I3
I5
tp283
(iya
RecordScore
p284
(dp285
g17
g153
sbs(I0
I0
I0
I0
I0
I0
I0
I0
I0
I0
I0
I0
I0
I0
I0
I2
I2
I5
I5
I6
tp286
(iya
Roll
p287
(dp288
g4
(lp289
I0
aI1
asbs(I0
I0
I0
I0
I0
I0
I0
I0
I0
I0
I0
I0
I0
I0
I0
I1
I1
I1
I4
I6
tp290
(iya
Roll
p291
(dp292
g4
(lp293
I0
aI1
aI2
asbs(I0
I0
I0
I0
I0
I0
I0
I0
I0
I0
I0
I0
I0
I0
I0
I2
I4
I4
I5
I6
tp294
(iya
RecordScore
p295
(dp296
g17
g65
sbs(I0
I0
I0
I0
I0
I0
I0
I0
I0
I0
I0
I0
I0
I0
I0
I1
I1
I2
I4
I4
tp297
(iya
RecordScore
p298
(dp299
g17
g18
sbs(I0
I0
I0
I0
I0
I0
I0
I0
I0
I0
I0
I0
I0
I0
I0
I1
I4
I6
I6
I6
tp300
(iya
Roll
p301
(dp302
g4
(lp303
I0
aI1
asbs(I0
I0
I0
I0
I0
I0
I0
I0
I0
I0
I0
I0
I0
I0
I0
I2
I2
I2
I2
I2
tp304
(iya
RecordScore
p305
(dp306
g17
g45
sbs(I0
I0
I0
I0
I0
I0
I0
I0
I0
I0
I0
I0
I0
I0
I0
I1
I2
I2
I4
I4
tp307
(iya
RecordScore
p308
(dp309
g17
g18
sbs(I0
I0
I0
I0
I0
I0
I0
I0
I0
I0
I0
I0
I0
I0
I0
I5
I5
I5
I5
I5
tp310
(iya
RecordScore
p311
(dp312
g17
g45
sbs(I0
I0
I0
I0
I0
I0
I0
I0
I0
I0
I0
I0
I0
I0
I0
I3
I5
I5
I5
I5
tp313
(iya
Roll
p314
(dp315
g4
(lp316
I0
asbs(I0
I0
I0
I0
I0
I0
I0
I0
I0
I0
I0
I0
I0
I0
I0
I1
I1
I2
I2
I2
tp317
(iya
RecordScore
p318
(dp319
g17
g49
sbs(I0
I0
I0
I0
I0
I0
I0
I0
I0
I0
I0
I0
I0
I0
I0
I1
I1
I4
I4
I5
tp320
(iya
RecordScore
p321
(dp322
g17
g18
sbs(I0
I0
I0
I0
I0
I0
I0
I0
I0
I0
I0
I0
I0
I0
I0
I1
I2
I2
I2
I5
tp323
(iya
RecordScore
p324
(dp325
g17
g38
sbs(I0
I0
I0
I0
I0
I0
I0
I0
I0
I0
I0
I0
I0
I0
I0
I4
I4
I4
I5
I5
tp326
(iya
RecordScore
p327
(dp328
g17
g49
sbs(I0
I0
I0
I0
I0
I0
I0
I0
I0
I0
I0
I0
I0
I0
I0
I1
I3
I4
I5
I5
tp329
(iya
Roll
p330
(dp331
g4
(lp332
I0
aI3
asbs(I0
I0
I0
I0
I0
I0
I0
I0
I0
I0
I0
I0
I0
I0
I0
I1
I1
I1
I1
I1
tp333
(iya
RecordScore
p334
(dp335
g17
g45
sbs(I0
I0
I0
I0
I0
I0
I0
I0
I0
I0
I0
I0
I0
I0
I0
I4
I4
I4
I4
I5
tp336
(iya
Roll
p337
(dp338
g4
(lp339
I4
asbs(I0
I0
I0
I0
I0
I0
I0
I0
I0
I0
I0
I0
I0
I0
I0
I1
I3
I3
I5
I5
tp340
(iya
Roll
p341
(dp342
g4
(lp343
I0
aI1
aI2
asbs(I0
I0
I0
I0
I0
I0
I0
I0
I0
I0
I0
I0
I0
I0
I0
I2
I4
I5
I5
I5
tp344
(iya
Roll
p345
(dp346
g4
(lp347
I0
aI1
asbs(I0
I0
I0
I0
I0
I0
I0
I0
I0
I0
I0
I0
I0
I0
I0
I2
I2
I4
I6
I6
tp348
(iya
Roll
p349
(dp350
g4
(lp351
I0
aI1
aI2
asbs(I0
I0
I0
I0
I0
I0
I0
I0
I0
I0
I0
I0
I0
I0
I0
I1
I3
I4
I4
I5
tp352
(iya
Roll
p353
(dp354
g4
(lp355
I0
aI2
asbs(I0
I0
I0
I0
I0
I0
I0
I0
I0
I0
I0
I0
I0
I0
I0
I1
I2
I3
I3
I4
tp356
(iya
RecordScore
p357
(dp358
g17
g88
sbs(I0
I0
I0
I0
I0
I0
I0
I0
I0
I0
I0
I0
I0
I0
I0
I1
I1
I2
I2
I4
tp359
(iya
Roll
p360
(dp361
g4
(lp362
I0
aI1
aI2
aI3
asbs(I0
I0
I0
I0
I0
I0
I0
I0
I0
I0
I0
I0
I0
I0
I0
I1
I1
I1
I1
I6
tp363
(iya
Roll
p364
(dp365
g4
(lp366
I4
asbs(I0
I0
I0
I0
I0
I0
I0
I0
I0
I0
I0
I0
I0
I0
I0
I3
I3
I5
I6
I6
tp367
(iya
RecordScore
p368
(dp369
g17
g65
sbs(I0
I0
I0
I0
I0
I0
I0
I0
I0
I0
I0
I0
I0
I0
I0
I1
I1
I4
I5
I6
tp370
(iya
Roll
p371
(dp372
g4
(lp373
I0
aI1
asbs(I0
I0
I0
I0
I0
I0
I0
I0
I0
I0
I0
I0
I0
I0
I0
I3
I3
I3
I4
I6
tp374
(iya
RecordScore
p375
(dp376
g17
g153
sbs(I0
I0
I0
I0
I0
I0
I0
I0
I0
I0
I0
I0
I0
I0
I0
I2
I2
I2
I6
I6
tp377
(iya
RecordScore
p378
(dp379
g17
g49
sbs(I0
I0
I0
I0
I0
I0
I0
I0
I0
I0
I0
I0
I0
I0
I0
I1
I1
I1
I2
I4
tp380
(iya
Roll
p381
(dp382
g4
(lp383
I0
aI1
aI2
aI3
asbs(I0
I0
I0
I0
I0
I0
I0
I0
I0
I0
I0
I0
I0
I0
I0
I3
I3
I4
I4
I5
tp384
(iya
Roll
p385
(dp386
g4
(lp387
I0
aI2
asbs(I0
I0
I0
I0
I0
I0
I0
I0
I0
I0
I0
I0
I0
I0
I0
I1
I1
I2
I5
I5
tp388
(iya
Roll
p389
(dp390
g4
(lp391
I0
aI1
aI2
asbs(I0
I0
I0
I0
I0
I0
I0
I0
I0
I0
I0
I0
I0
I0
I0
I1
I3
I3
I3
I6
tp392
(iya
RecordScore
p393
(dp394
g17
g153
sbs(I0
I0
I0
I0
I0
I0
I0
I0
I0
I0
I0
I0
I0
I0
I0
I1
I3
I3
I4
I6
tp395
(iya
Roll
p396
(dp397
g4
(lp398
I0
aI1
aI4
asbs(I0
I0
I0
I0
I0
I0
I0
I0
I0
I0
I0
I0
I0
I0
I0
I1
I1
I5
I5
I5
tp399
(iya
RecordScore
p400
(dp401
g17
g49
sbs(I0
I0
I0
I0
I0
I0
I0
I0
I0
I0
I0
I0
I0
I0
I0
I1
I1
I1
I4
I5
tp402
(iya
Roll
p403
(dp404
g4
(lp405
I0
aI1
aI2
asbs(I0
I0
I0
I0
I0
I0
I0
I0
I0
I0
I0
I0
I0
I0
I0
I1
I1
I5
I5
I6
tp406
(iya
Roll
p407
(dp408
g4
(lp409
I0
aI1
asbs(I0
I0
I0
I0
I0
I0
I0
I0
I0
I0
I0
I0
I0
I0
I0
I2
I4
I4
I5
I5
tp410
(iya
Roll
p411
(dp412
g4
(lp413
I0
aI1
aI2
asbs(I0
I0
I0
I0
I0
I0
I0
I0
I0
I0
I0
I0
I0
I0
I0
I1
I1
I2
I4
I5
tp414
(iya
Roll
p415
(dp416
g4
(lp417
I0
aI1
asbs(I0
I0
I0
I0
I0
I0
I0
I0
I0
I0
I0
I0
I0
I0
I0
I3
I4
I5
I5
I5
tp418
(iya
Roll
p419
(dp420
g4
(lp421
I0
aI1
asbs(I0
I0
I0
I0
I0
I0
I0
I0
I0
I0
I0
I0
I0
I0
I0
I2
I2
I2
I2
I3
tp422
(iya
Roll
p423
(dp424
g4
(lp425
I4
asbs(I0
I0
I0
I0
I0
I0
I0
I0
I0
I0
I0
I0
I0
I0
I0
I4
I4
I5
I5
I5
tp426
(iya
RecordScore
p427
(dp428
g17
g49
sbs(I0
I0
I0
I0
I0
I0
I0
I0
I0
I0
I0
I0
I0
I0
I0
I3
I5
I5
I5
I6
tp429
(iya
RecordScore
p430
(dp431
g17
g30
sbs(I0
I0
I0
I0
I0
I0
I0
I0
I0
I0
I0
I0
I0
I0
I0
I5
I6
I6
I6
I6
tp432
(iya
RecordScore
p433
(dp434
g17
S'4 of a kind'
p435
sbs(I0
I0
I0
I0
I0
I0
I0
I0
I0
I0
I0
I0
I0
I0
I0
I1
I2
I4
I4
I5
tp436
(iya
Roll
p437
(dp438
g4
(lp439
I0
aI2
asbs(I0
I0
I0
I0
I0
I0
I0
I0
I0
I0
I0
I0
I0
I0
I0
I2
I3
I6
I6
I6
tp440
(iya
Roll
p441
(dp442
g4
(lp443
I0
aI1
asbs(I0
I0
I0
I0
I0
I0
I0
I0
I0
I0
I0
I0
I0
I0
I0
I2
I3
I3
I4
I4
tp444
(iya
Roll
p445
(dp446
g4
(lp447
I1
aI3
asbs(I0
I0
I0
I0
I0
I0
I0
I0
I0
I0
I0
I0
I0
I0
I0
I1
I2
I2
I2
I4
tp448
(iya
RecordScore
p449
(dp450
g17
g38
sbs(I0
I0
I0
I0
I0
I0
I0
I0
I0
I0
I0
I0
I0
I0
I0
I1
I1
I3
I3
I4
tp451
(iya
Roll
p452
(dp453
g4
(lp454
I0
aI1
aI2
asbs(I0
I0
I0
I0
I0
I0
I0
I0
I0
I0
I0
I0
I0
I0
I0
I1
I3
I4
I5
I6
tp455
(iya
RecordScore
p456
(dp457
g17
g88
sbs(I0
I0
I0
I0
I0
I0
I0
I0
I0
I0
I0
I0
I0
I0
I0
I2
I2
I2
I2
I4
tp458
(iya
Roll
p459
(dp460
g4
(lp461
I4
asbs(I0
I0
I0
I0
I0
I0
I0
I0
I0
I0
I0
I0
I0
I0
I0
I2
I3
I4
I6
I6
tp462
(iya
Roll
p463
(dp464
g4
(lp465
I0
aI1
aI2
asbs(I0
I0
I0
I0
I0
I0
I0
I0
I0
I0
I0
I0
I0
I0
I0
I3
I3
I4
I5
I6
tp466
(iya
RecordScore
p467
(dp468
g17
g88
sbs(I0
I0
I0
I0
I0
I0
I0
I0
I0
I0
I0
I0
I0
I0
I0
I3
I4
I4
I5
I6
tp469
(iya
RecordScore
p470
(dp471
g17
g88
sbs(I0
I0
I0
I0
I0
I0
I0
I0
I0
I0
I0
I0
I0
I0
I0
I1
I2
I3
I5
I6
tp472
(iya
Roll
p473
(dp474
g4
(lp475
I0
aI1
aI2
asbs(I0
I0
I0
I0
I0
I0
I0
I0
I0
I0
I0
I0
I0
I0
I0
I4
I4
I4
I4
I6
tp476
(iya
Roll
p477
(dp478
g4
(lp479
I4
asbs(I0
I0
I0
I0
I0
I0
I0
I0
I0
I0
I0
I0
I0
I0
I0
I1
I2
I4
I5
I6
tp480
(iya
Roll
p481
(dp482
g4
(lp483
I0
aI1
asbs(I0
I0
I0
I0
I0
I0
I0
I0
I0
I0
I0
I0
I0
I0
I0
I3
I3
I5
I5
I5
tp484
(iya
RecordScore
p485
(dp486
g17
g49
sbs(I0
I0
I0
I0
I0
I0
I0
I0
I0
I0
I0
I0
I0
I0
I0
I1
I2
I2
I3
I5
tp487
(iya
Roll
p488
(dp489
g4
(lp490
I0
aI1
asbs(I0
I0
I0
I0
I0
I0
I0
I0
I0
I0
I0
I0
I0
I0
I0
I1
I4
I4
I5
I5
tp491
(iya
Roll
p492
(dp493
g4
(lp494
I0
aI1
aI2
asbs(I0
I0
I0
I0
I0
I0
I0
I0
I0
I0
I0
I0
I0
I0
I0
I1
I1
I3
I4
I5
tp495
(iya
Roll
p496
(dp497
g4
(lp498
I0
aI1
asbs(I0
I0
I0
I0
I0
I0
I0
I0
I0
I0
I0
I0
I0
I0
I0
I1
I3
I4
I4
I6
tp499
(iya
RecordScore
p500
(dp501
g17
g18
sbs(I0
I0
I0
I0
I0
I0
I0
I0
I0
I0
I0
I0
I0
I0
I0
I1
I2
I3
I3
I3
tp502
(iya
RecordScore
p503
(dp504
g17
g153
sbs(I0
I0
I0
I0
I0
I0
I0
I0
I0
I0
I0
I0
I0
I0
I0
I1
I1
I2
I2
I5
tp505
(iya
Roll
p506
(dp507
g4
(lp508
I0
aI1
aI2
aI3
asbs(I0
I0
I0
I0
I0
I0
I0
I0
I0
I0
I0
I0
I0
I0
I0
I1
I2
I2
I3
I3
tp509
(iya
RecordScore
p510
(dp511
g17
g153
sbs(I0
I0
I0
I0
I0
I0
I0
I0
I0
I0
I0
I0
I0
I0
I0
I2
I5
I5
I5
I5
tp512
(iya
Roll
p513
(dp514
g4
(lp515
I0
asbs(I0
I0
I0
I0
I0
I0
I0
I0
I0
I0
I0
I0
I0
I0
I0
I1
I1
I4
I5
I5
tp516
(iya
Roll
p517
(dp518
g4
(lp519
I0
aI1
aI2
asbs(I0
I0
I0
I0
I0
I0
I0
I0
I0
I0
I0
I0
I0
I0
I0
I1
I1
I3
I5
I5
tp520
(iya
Roll
p521
(dp522
g4
(lp523
I0
aI1
aI2
asbs(I0
I0
I0
I0
I0
I0
I0
I0
I0
I0
I0
I0
I0
I0
I0
I2
I2
I4
I4
I6
tp524
(iya
RecordScore
p525
(dp526
g17
g18
sbs(I0
I0
I0
I0
I0
I0
I0
I0
I0
I0
I0
I0
I0
I0
I0
I2
I3
I3
I3
I4
tp527
(iya
RecordScore
p528
(dp529
g17
g153
sbs(I0
I0
I0
I0
I0
I0
I0
I0
I0
I0
I0
I0
I0
I0
I0
I2
I5
I5
I6
I6
tp530
(iya
RecordScore
p531
(dp532
g17
g65
sbs(I0
I0
I0
I0
I0
I0
I0
I0
I0
I0
I0
I0
I0
I0
I0
I2
I2
I3
I3
I3
tp533
(iya
RecordScore
p534
(dp535
g17
g49
sbs(I0
I0
I0
I0
I0
I0
I0
I0
I0
I0
I0
I0
I0
I0
I0
I3
I3
I3
I3
I4
tp536
(iya
Roll
p537
(dp538
g4
(lp539
I4
asbs(I0
I0
I0
I0
I0
I0
I0
I0
I0
I0
I0
I0
I0
I0
I0
I4
I5
I6
I6
I6
tp540
(iya
RecordScore
p541
(dp542
g17
g30
sbs(I0
I0
I0
I0
I0
I0
I0
I0
I0
I0
I0
I0
I0
I0
I0
I1
I2
I3
I6
I6
tp543
(iya
Roll
p544
(dp545
g4
(lp546
I0
aI1
aI2
asbs(I0
I0
I0
I0
I0
I0
I0
I0
I0
I0
I0
I0
I0
I0
I0
I1
I3
I3
I4
I5
tp547
(iya
Roll
p548
(dp549
g4
(lp550
I0
aI1
asbs(I0
I0
I0
I0
I0
I0
I0
I0
I0
I0
I0
I0
I0
I0
I0
I2
I3
I5
I5
I6
tp551
(iya
RecordScore
p552
(dp553
g17
g65
sbs(I0
I0
I0
I0
I0
I0
I0
I0
I0
I0
I0
I0
I0
I0
I0
I1
I1
I1
I4
I4
tp554
(iya
RecordScore
p555
(dp556
g17
g49
sbs(I0
I0
I0
I0
I0
I0
I0
I0
I0
I0
I0
I0
I0
I0
I0
I1
I2
I6
I6
I6
tp557
(iya
Roll
p558
(dp559
g4
(lp560
I0
aI1
asbs(I0
I0
I0
I0
I0
I0
I0
I0
I0
I0
I0
I0
I0
I0
I0
I2
I2
I3
I3
I4
tp561
(iya
Roll
p562
(dp563
g4
(lp564
I0
aI2
asbs(I0
I0
I0
I0
I0
I0
I0
I0
I0
I0
I0
I0
I0
I0
I0
I1
I1
I2
I4
I6
tp565
(iya
Roll
p566
(dp567
g4
(lp568
I0
aI1
aI2
asbs(I0
I0
I0
I0
I0
I0
I0
I0
I0
I0
I0
I0
I0
I0
I0
I1
I1
I2
I3
I6
tp569
(iya
Roll
p570
(dp571
g4
(lp572
I0
aI1
aI2
aI3
asbs(I0
I0
I0
I0
I0
I0
I0
I0
I0
I0
I0
I0
I0
I0
I0
I2
I2
I2
I4
I6
tp573
(iya
RecordScore
p574
(dp575
g17
g38
sbs(I0
I0
I0
I0
I0
I0
I0
I0
I0
I0
I0
I0
I0
I0
I0
I1
I2
I4
I6
I6
tp576
(iya
Roll
p577
(dp578
g4
(lp579
I0
aI1
aI2
asbs(I0
I0
I0
I0
I0
I0
I0
I0
I0
I0
I0
I0
I0
I0
I0
I3
I3
I3
I4
I5
tp580
(iya
RecordScore
p581
(dp582
g17
g153
sbs(I0
I0
I0
I0
I0
I0
I0
I0
I0
I0
I0
I0
I0
I0
I0
I1
I2
I2
I4
I6
tp583
(iya
Roll
p584
(dp585
g4
(lp586
I0
aI1
aI2
asbs(I0
I0
I0
I0
I0
I0
I0
I0
I0
I0
I0
I0
I0
I0
I0
I4
I4
I5
I5
I6
tp587
(iya
RecordScore
p588
(dp589
g17
g65
sbs(I0
I0
I0
I0
I0
I0
I0
I0
I0
I0
I0
I0
I0
I0
I0
I2
I2
I2
I3
I3
tp590
(iya
RecordScore
p591
(dp592
g17
g49
sbs(I0
I0
I0
I0
I0
I0
I0
I0
I0
I0
I0
I0
I0
I0
I0
I2
I3
I4
I5
I5
tp593
(iya
Roll
p594
(dp595
g4
(lp596
I3
asbs(I0
I0
I0
I0
I0
I0
I0
I0
I0
I0
I0
I0
I0
I0
I0
I2
I6
I6
I6
I6
tp597
(iya
Roll
p598
(dp599
g4
(lp600
I0
asbs(I0
I0
I0
I0
I0
I0
I0
I0
I0
I0
I0
I0
I0
I0
I0
I3
I3
I3
I5
I5
tp601
(iya
RecordScore
p602
(dp603
g17
g49
sbs(I0
I0
I0
I0
I0
I0
I0
I0
I0
I0
I0
I0
I0
I0
I0
I1
I4
I5
I5
I5
tp604
(iya
Roll
p605
(dp606
g4
(lp607
I0
aI1
asbs(I0
I0
I0
I0
I0
I0
I0
I0
I0
I0
I0
I0
I0
I0
I0
I1
I1
I3
I3
I5
tp608
(iya
RecordScore
p609
(dp610
g17
g153
sbs(I0
I0
I0
I0
I0
I0
I0
I0
I0
I0
I0
I0
I0
I0
I0
I1
I5
I5
I5
I6
tp611
(iya
Roll
p612
(dp613
g4
(lp614
I0
aI4
asbs(I0
I0
I0
I0
I0
I0
I0
I0
I0
I0
I0
I0
I0
I0
I0
I2
I2
I2
I2
I5
tp615
(iya
Roll
p616
(dp617
g4
(lp618
I4
asbs(I0
I0
I0
I0
I0
I0
I0
I0
I0
I0
I0
I0
I0
I0
I0
I5
I5
I6
I6
I6
tp619
(iya
RecordScore
p620
(dp621
g17
g30
sbs(I0
I0
I0
I0
I0
I0
I0
I0
I0
I0
I0
I0
I0
I0
I0
I1
I6
I6
I6
I6
tp622
(iya
Roll
p623
(dp624
g4
(lp625
I0
asbs(I0
I0
I0
I0
I0
I0
I0
I0
I0
I0
I0
I0
I0
I0
I0
I1
I2
I2
I2
I2
tp626
(iya
Roll
p627
(dp628
g4
(lp629
I0
asbs(I0
I0
I0
I0
I0
I0
I0
I0
I0
I0
I0
I0
I0
I0
I0
I2
I4
I6
I6
I6
tp630
(iya
Roll
p631
(dp632
g4
(lp633
I0
aI1
asbs(I0
I0
I0
I0
I0
I0
I0
I0
I0
I0
I0
I0
I0
I0
I0
I3
I4
I6
I6
I6
tp634
(iya
RecordScore
p635
(dp636
g17
g30
sbs(I0
I0
I0
I0
I0
I0
I0
I0
I0
I0
I0
I0
I0
I0
I0
I1
I4
I4
I5
I6
tp637
(iya
Roll
p638
(dp639
g4
(lp640
I0
aI1
asbs(I0
I0
I0
I0
I0
I0
I0
I0
I0
I0
I0
I0
I0
I0
I0
I4
I5
I5
I5
I6
tp641
(iya
RecordScore
p642
(dp643
g17
g30
sbs(I0
I0
I0
I0
I0
I0
I0
I0
I0
I0
I0
I0
I0
I0
I0
I3
I4
I4
I6
I6
tp644
(iya
RecordScore
p645
(dp646
g17
g65
sbs(I0
I0
I0
I0
I0
I0
I0
I0
I0
I0
I0
I0
I0
I0
I0
I2
I3
I4
I4
I6
tp647
(iya
Roll
p648
(dp649
g4
(lp650
I2
aI4
asbs(I0
I0
I0
I0
I0
I0
I0
I0
I0
I0
I0
I0
I0
I0
I0
I2
I2
I6
I6
I6
tp651
(iya
RecordScore
p652
(dp653
g17
g49
sbs(I0
I0
I0
I0
I0
I0
I0
I0
I0
I0
I0
I0
I0
I0
I0
I1
I1
I1
I1
I4
tp654
(iya
Roll
p655
(dp656
g4
(lp657
I4
asbs(I0
I0
I0
I0
I0
I0
I0
I0
I0
I0
I0
I0
I0
I0
I0
I1
I2
I5
I5
I6
tp658
(iya
Roll
p659
(dp660
g4
(lp661
I0
aI1
asbs(I0
I0
I0
I0
I0
I0
I0
I0
I0
I0
I0
I0
I0
I0
I0
I2
I2
I4
I5
I6
tp662
(iya
Roll
p663
(dp664
g4
(lp665
I0
aI1
asbs(I0
I0
I0
I0
I0
I0
I0
I0
I0
I0
I0
I0
I0
I0
I0
I1
I1
I3
I5
I6
tp666
(iya
Roll
p667
(dp668
g4
(lp669
I0
aI1
aI2
asbs(I0
I0
I0
I0
I0
I0
I0
I0
I0
I0
I0
I0
I0
I0
I0
I1
I2
I2
I3
I4
tp670
(iya
RecordScore
p671
(dp672
g17
g88
sbs(I0
I0
I0
I0
I0
I0
I0
I0
I0
I0
I0
I0
I0
I0
I0
I1
I1
I2
I3
I3
tp673
(iya
RecordScore
p674
(dp675
g17
g153
sbs(I0
I0
I0
I0
I0
I0
I0
I0
I0
I0
I0
I0
I0
I0
I0
I1
I1
I1
I2
I6
tp676
(iya
Roll
p677
(dp678
g4
(lp679
I0
aI1
aI2
aI3
asbs(I0
I0
I0
I0
I0
I0
I0
I0
I0
I0
I0
I0
I0
I0
I0
I4
I4
I6
I6
I6
tp680
(iya
RecordScore
p681
(dp682
g17
g30
sbs(I0
I0
I0
I0
I0
I0
I0
I0
I0
I0
I0
I0
I0
I0
I0
I1
I3
I5
I5
I6
tp683
(iya
Roll
p684
(dp685
g4
(lp686
I0
aI1
asbs(I0
I0
I0
I0
I0
I0
I0
I0
I0
I0
I0
I0
I0
I0
I0
I3
I5
I6
I6
I6
tp687
(iya
RecordScore
p688
(dp689
g17
g30
sbs(I0
I0
I0
I0
I0
I0
I0
I0
I0
I0
I0
I0
I0
I0
I0
I3
I3
I3
I3
I5
tp690
(iya
Roll
p691
(dp692
g4
(lp693
I4
asbs(I0
I0
I0
I0
I0
I0
I0
I0
I0
I0
I0
I0
I0
I0
I0
I3
I6
I6
I6
I6
tp694
(iya
Roll
p695
(dp696
g4
(lp697
I0
asbs(I0
I0
I0
I0
I0
I0
I0
I0
I0
I0
I0
I0
I0
I0
I0
I4
I4
I4
I4
I4
tp698
(iya
RecordScore
p699
(dp700
g17
g45
sbs(I0
I0
I0
I0
I0
I0
I0
I0
I0
I0
I0
I0
I0
I0
I0
I1
I3
I3
I4
I4
tp701
(iya
RecordScore
p702
(dp703
g17
g18
sbs(I0
I0
I0
I0
I0
I0
I0
I0
I0
I0
I0
I0
I0
I0
I0
I2
I3
I5
I5
I5
tp704
(iya
Roll
p705
(dp706
g4
(lp707
I0
aI1
asbs(I0
I0
I0
I0
I0
I0
I0
I0
I0
I0
I0
I0
I0
I0
I0
I1
I4
I4
I4
I5
tp708
(iya
RecordScore
p709
(dp710
g17
g18
sbs(I0
I0
I0
I0
I0
I0
I0
I0
I0
I0
I0
I0
I0
I0
I0
I2
I2
I3
I3
I5
tp711
(iya
Roll
p712
(dp713
g4
(lp714
I0
aI2
asbs(I0
I0
I0
I0
I0
I0
I0
I0
I0
I0
I0
I0
I0
I0
I0
I4
I6
I6
I6
I6
tp715
(iya
RecordScore
p716
(dp717
g17
g435
sbs(I0
I0
I0
I0
I0
I0
I0
I0
I0
I0
I0
I0
I0
I0
I0
I1
I1
I2
I3
I5
tp718
(iya
Roll
p719
(dp720
g4
(lp721
I0
aI1
asbs(I0
I0
I0
I0
I0
I0
I0
I0
I0
I0
I0
I0
I0
I0
I0
I3
I3
I3
I4
I4
tp722
(iya
RecordScore
p723
(dp724
g17
g49
sbs(I0
I0
I0
I0
I0
I0
I0
I0
I0
I0
I0
I0
I0
I0
I0
I1
I4
I5
I6
I6
tp725
(iya
RecordScore
p726
(dp727
g17
g65
sbs(I0
I0
I0
I0
I0
I0
I0
I0
I0
I0
I0
I0
I0
I0
I0
I6
I6
I6
I6
I6
tp728
(iya
RecordScore
p729
(dp730
g17
g45
sbs(I0
I0
I0
I0
I0
I0
I0
I0
I0
I0
I0
I0
I0
I0
I0
I3
I4
I5
I5
I6
tp731
(iya
RecordScore
p732
(dp733
g17
g88
sbs(I0
I0
I0
I0
I0
I0
I0
I0
I0
I0
I0
I0
I0
I0
I0
I2
I4
I4
I6
I6
tp734
(iya
RecordScore
p735
(dp736
g17
g65
sbs(I0
I0
I0
I0
I0
I0
I0
I0
I0
I0
I0
I0
I0
I0
I0
I1
I1
I4
I6
I6
tp737
(iya
Roll
p738
(dp739
g4
(lp740
I0
aI1
aI2
asbs(I0
I0
I0
I0
I0
I0
I0
I0
I0
I0
I0
I0
I0
I0
I0
I1
I1
I6
I6
I6
tp741
(iya
RecordScore
p742
(dp743
g17
g49
sbs(I0
I0
I0
I0
I0
I0
I0
I0
I0
I0
I0
I0
I0
I0
I0
I2
I3
I3
I4
I6
tp744
(iya
Roll
p745
(dp746
g4
(lp747
I1
aI4
asbs(I0
I0
I0
I0
I0
I0
I0
I0
I0
I0
I0
I0
I0
I0
I0
I2
I3
I3
I3
I6
tp748
(iya
RecordScore
p749
(dp750
g17
g153
sbs(I0
I0
I0
I0
I0
I0
I0
I0
I0
I0
I0
I0
I0
I0
I0
I1
I3
I3
I3
I3
tp751
(iya
Roll
p752
(dp753
g4
(lp754
I0
asbs(I0
I0
I0
I0
I0
I0
I0
I0
I0
I0
I0
I0
I0
I0
I0
I2
I2
I3
I6
I6
tp755
(iya
Roll
p756
(dp757
g4
(lp758
I0
aI1
aI2
asbs(I0
I0
I0
I0
I0
I0
I0
I0
I0
I0
I0
I0
I0
I0
I0
I2
I2
I2
I2
I6
tp759
(iya
Roll
p760
(dp761
g4
(lp762
I4
asbs(I0
I0
I0
I0
I0
I0
I0
I0
I0
I0
I0
I0
I0
I0
I0
I1
I2
I4
I4
I6
tp763
(iya
RecordScore
p764
(dp765
g17
g18
sbs(I0
I0
I0
I0
I0
I0
I0
I0
I0
I0
I0
I0
I0
I0
I0
I1
I2
I2
I6
I6
tp766
(iya
Roll
p767
(dp768
g4
(lp769
I0
aI1
aI2
asbs(I0
I0
I0
I0
I0
I0
I0
I0
I0
I0
I0
I0
I0
I0
I0
I3
I4
I4
I5
I5
tp770
(iya
Roll
p771
(dp772
g4
(lp773
I1
aI3
asbs(I0
I0
I0
I0
I0
I0
I0
I0
I0
I0
I0
I0
I0
I0
I0
I2
I2
I3
I4
I5
tp774
(iya
Roll
p775
(dp776
g4
(lp777
I0
asbs(I0
I0
I0
I0
I0
I0
I0
I0
I0
I0
I0
I0
I0
I0
I0
I1
I3
I6
I6
I6
tp778
(iya
Roll
p779
(dp780
g4
(lp781
I0
aI1
asbs(I0
I0
I0
I0
I0
I0
I0
I0
I0
I0
I0
I0
I0
I0
I0
I4
I5
I5
I5
I5
tp782
(iya
Roll
p783
(dp784
g4
(lp785
I0
asbs(I0
I0
I0
I0
I0
I0
I0
I0
I0
I0
I0
I0
I0
I0
I0
I1
I1
I4
I4
I6
tp786
(iya
RecordScore
p787
(dp788
g17
g18
sbs(I0
I0
I0
I0
I0
I0
I0
I0
I0
I0
I0
I0
I0
I0
I0
I2
I3
I4
I4
I5
tp789
(iya
Roll
p790
(dp791
g4
(lp792
I2
asbs(I0
I0
I0
I0
I0
I0
I0
I0
I0
I0
I0
I0
I0
I0
I0
I1
I1
I2
I2
I3
tp793
(iya
RecordScore
p794
(dp795
g17
g38
sbs(I0
I0
I0
I0
I0
I0
I0
I0
I0
I0
I0
I0
I0
I0
I0
I1
I1
I1
I1
I5
tp796
(iya
Roll
p797
(dp798
g4
(lp799
I4
asbs(I0
I0
I0
I0
I0
I0
I0
I0
I0
I0
I0
I0
I0
I0
I0
I1
I2
I5
I5
I5
tp800
(iya
Roll
p801
(dp802
g4
(lp803
I0
aI1
asbs(I0
I0
I0
I0
I0
I0
I0
I0
I0
I0
I0
I0
I0
I0
I0
I3
I3
I6
I6
I6
tp804
(iya
RecordScore
p805
(dp806
g17
g49
sbs(I0
I0
I0
I0
I0
I0
I0
I0
I0
I0
I0
I0
I0
I0
I0
I2
I2
I2
I3
I5
tp807
(iya
RecordScore
p808
(dp809
g17
g38
sbs(I0
I0
I0
I0
I0
I0
I0
I0
I0
I0
I0
I0
I0
I0
I0
I3
I3
I4
I6
I6
tp810
(iya
RecordScore
p811
(dp812
g17
g65
sbs(I0
I0
I0
I0
I0
I0
I0
I0
I0
I0
I0
I0
I0
I0
I0
I2
I4
I4
I4
I6
tp813
(iya
RecordScore
p814
(dp815
g17
g18
sbs(I0
I0
I0
I0
I0
I0
I0
I0
I0
I0
I0
I0
I0
I0
I0
I3
I4
I4
I4
I6
tp816
(iya
RecordScore
p817
(dp818
g17
g30
sbs(I0
I0
I0
I0
I0
I0
I0
I0
I0
I0
I0
I0
I0
I0
I0
I1
I1
I2
I5
I6
tp819
(iya
Roll
p820
(dp821
g4
(lp822
I0
aI1
aI2
asbs(I0
I0
I0
I0
I0
I0
I0
I0
I0
I0
I0
I0
I0
I0
I0
I2
I2
I2
I5
I6
tp823
(iya
RecordScore
p824
(dp825
g17
g38
sbs(I0
I0
I0
I0
I0
I0
I0
I0
I0
I0
I0
I0
I0
I0
I0
I1
I2
I3
I4
I4
tp826
(iya
RecordScore
p827
(dp828
g17
g88
sbs(I0
I0
I0
I0
I0
I0
I0
I0
I0
I0
I0
I0
I0
I0
I0
I4
I4
I4
I6
I6
tp829
(iya
RecordScore
p830
(dp831
g17
g49
sbs(I0
I0
I0
I0
I0
I0
I0
I0
I0
I0
I0
I0
I0
I0
I0
I1
I4
I4
I4
I4
tp832
(iya
Roll
p833
(dp834
g4
(lp835
I0
asbs(I0
I0
I0
I0
I0
I0
I0
I0
I0
I0
I0
I0
I0
I0
I0
I2
I2
I3
I3
I6
tp836
(iya
RecordScore
p837
(dp838
g17
g153
sbs(I0
I0
I0
I0
I0
I0
I0
I0
I0
I0
I0
I0
I0
I0
I0
I1
I1
I2
I3
I4
tp839
(iya
RecordScore
p840
(dp841
g17
g88
sbs(I0
I0
I0
I0
I0
I0
I0
I0
I0
I0
I0
I0
I0
I0
I0
I2
I2
I2
I4
I4
tp842
(iya
RecordScore
p843
(dp844
g17
g49
sbs(I0
I0
I0
I0
I0
I0
I0
I0
I0
I0
I0
I0
I0
I0
I0
I3
I3
I3
I5
I6
tp845
(iya
RecordScore
p846
(dp847
g17
g30
sbs(I0
I0
I0
I0
I0
I0
I0
I0
I0
I0
I0
I0
I0
I0
I0
I1
I5
I5
I6
I6
tp848
(iya
RecordScore
p849
(dp850
g17
g65
sbs(I0
I0
I0
I0
I0
I0
I0
I0
I0
I0
I0
I0
I0
I0
I0
I2
I2
I4
I4
I4
tp851
(iya
RecordScore
p852
(dp853
g17
g49
sbs(I0
I0
I0
I0
I0
I0
I0
I0
I0
I0
I0
I0
I0
I0
I0
I1
I3
I4
I6
I6
tp854
(iya
Roll
p855
(dp856
g4
(lp857
I0
aI1
aI2
asbs(I0
I0
I0
I0
I0
I0
I0
I0
I0
I0
I0
I0
I0
I0
I0
I1
I2
I4
I5
I5
tp858
(iya
Roll
p859
(dp860
g4
(lp861
I0
aI1
aI2
asbs(I0
I0
I0
I0
I0
I0
I0
I0
I0
I0
I0
I0
I0
I0
I0
I1
I2
I3
I4
I5
tp862
(iya
RecordScore
p863
(dp864
g17
g198
sbs(I0
I0
I0
I0
I0
I0
I0
I0
I0
I0
I0
I0
I0
I0
I0
I1
I1
I2
I6
I6
tp865
(iya
Roll
p866
(dp867
g4
(lp868
I0
aI1
aI2
asbs(I0
I0
I0
I0
I0
I0
I0
I0
I0
I0
I0
I0
I0
I0
I0
I2
I3
I3
I3
I5
tp869
(iya
RecordScore
p870
(dp871
g17
g153
sbs(I0
I0
I0
I0
I0
I0
I0
I0
I0
I0
I0
I0
I0
I0
I0
I1
I1
I3
I3
I3
tp872
(iya
RecordScore
p873
(dp874
g17
g49
sbs(I0
I0
I0
I0
I0
I0
I0
I0
I0
I0
I0
I0
I0
I0
I0
I4
I4
I4
I5
I6
tp875
(iya
RecordScore
p876
(dp877
g17
g30
sbs(I0
I0
I0
I0
I0
I0
I0
I0
I0
I0
I0
I0
I0
I0
I0
I5
I5
I5
I5
I6
tp878
(iya
RecordScore
p879
(dp880
g17
g435
sbs(I0
I0
I0
I0
I0
I0
I0
I0
I0
I0
I0
I0
I0
I0
I0
I1
I1
I1
I3
I3
tp881
(iya
RecordScore
p882
(dp883
g17
g49
sbs(I0
I0
I0
I0
I0
I0
I0
I0
I0
I0
I0
I0
I0
I0
I0
I2
I3
I5
I6
I6
tp884
(iya
RecordScore
p885
(dp886
g17
g65
sbs(I0
I0
I0
I0
I0
I0
I0
I0
I0
I0
I0
I0
I0
I0
I0
I2
I4
I5
I5
I6
tp887
(iya
RecordScore
p888
(dp889
g17
g65
sbs(I0
I0
I0
I0
I0
I0
I0
I0
I0
I0
I0
I0
I0
I0
I0
I1
I5
I5
I5
I5
tp890
(iya
Roll
p891
(dp892
g4
(lp893
I0
asbs(I0
I0
I0
I0
I0
I0
I0
I0
I0
I0
I0
I0
I0
I0
I0
I2
I3
I3
I6
I6
tp894
(iya
Roll
p895
(dp896
g4
(lp897
I0
aI1
aI2
asbs.