(dp0
(I0
I0
I0
I0
I0
I0
I0
I0
I0
I0
I0
I0
I0
I0
I0
I1
I1
I3
I4
I6
tp1
(iyahtzee
Roll
p2
(dp3
S'_indices'
p4
(lp5
I0
aI1
aI4
asbs(I0
I0
I0
I0
I0
I0
I0
I0
I0
I0
I0
I0
I0
I0
I0
I2
I2
I3
I4
I6
tp6
(iyahtzee
Roll
p7
(dp8
g4
(lp9
I0
aI4
asbs(I0
I0
I0
I0
I0
I0
I0
I0
I0
I0
I0
I0
I0
I0
I0
I1
I1
I1
I3
I4
tp10
(iyahtzee
Roll
p11
(dp12
g4
(lp13
I0
aI1
aI2
asbs(I0
I0
I0
I0
I0
I0
I0
I0
I0
I0
I0
I0
I0
I0
I0
I2
I3
I4
I4
I4
tp14
(iyahtzee
RecordScore
p15
(dp16
S'_scoreName'
p17
S'Fours'
p18
sbs(I0
I0
I0
I0
I0
I0
I0
I0
I0
I0
I0
I0
I0
I0
I0
I2
I2
I5
I6
I6
tp19
(iyahtzee
Roll
p20
(dp21
g4
(lp22
I0
aI1
aI2
asbs(I0
I0
I0
I0
I0
I0
I0
I0
I0
I0
I0
I0
I0
I0
I0
I1
I2
I2
I3
I6
tp23
(iyahtzee
Roll
p24
(dp25
g4
(lp26
I0
aI1
aI2
aI3
asbs(I0
I0
I0
I0
I0
I0
I0
I0
I0
I0
I0
I0
I0
I0
I0
I2
I5
I5
I5
I6
tp27
(iyahtzee
RecordScore
p28
(dp29
g17
S'3 of a kind'
p30
sbs(I0
I0
I0
I0
I0
I0
I0
I0
I0
I0
I0
I0
I0
I0
I0
I1
I3
I3
I5
I6
tp31
(iyahtzee
Roll
p32
(dp33
g4
(lp34
I0
aI1
aI2
asbs(I0
I0
I0
I0
I0
I0
I0
I0
I0
I0
I0
I0
I0
I0
I0
I1
I2
I4
I5
I5
tp35
(iyahtzee
Roll
p36
(dp37
g4
(lp38
I0
aI1
aI2
asbs(I0
I0
I0
I0
I0
I0
I0
I0
I0
I0
I0
I0
I0
I0
I0
I2
I2
I2
I3
I4
tp39
(iyahtzee
RecordScore
p40
(dp41
g17
S'Twos'
p42
sbs(I0
I0
I0
I0
I0
I0
I0
I0
I0
I0
I0
I0
I0
I0
I0
I3
I4
I4
I4
I5
tp43
(iyahtzee
RecordScore
p44
(dp45
g17
g18
sbs(I0
I0
I0
I0
I0
I0
I0
I0
I0
I0
I0
I0
I0
I0
I0
I3
I3
I3
I3
I3
tp46
(iyahtzee
RecordScore
p47
(dp48
g17
S'Yahtzee'
p49
sbs(I0
I0
I0
I0
I0
I0
I0
I0
I0
I0
I0
I0
I0
I0
I0
I2
I2
I2
I5
I5
tp50
(iyahtzee
RecordScore
p51
(dp52
g17
S'Full House'
p53
sbs(I0
I0
I0
I0
I0
I0
I0
I0
I0
I0
I0
I0
I0
I0
I0
I1
I2
I2
I5
I5
tp54
(iyahtzee
Roll
p55
(dp56
g4
(lp57
I0
aI1
aI2
asbs(I0
I0
I0
I0
I0
I0
I0
I0
I0
I0
I0
I0
I0
I0
I0
I1
I1
I3
I6
I6
tp58
(iyahtzee
Roll
p59
(dp60
g4
(lp61
I0
aI1
aI2
asbs(I0
I0
I0
I0
I0
I0
I0
I0
I0
I0
I0
I0
I0
I0
I0
I1
I1
I1
I2
I3
tp62
(iyahtzee
Roll
p63
(dp64
g4
(lp65
I0
aI1
aI2
aI3
asbs(I0
I0
I0
I0
I0
I0
I0
I0
I0
I0
I0
I0
I0
I0
I0
I3
I3
I4
I4
I6
tp66
(iyahtzee
RecordScore
p67
(dp68
g17
S'Chance'
p69
sbs(I0
I0
I0
I0
I0
I0
I0
I0
I0
I0
I0
I0
I0
I0
I0
I2
I2
I2
I4
I5
tp70
(iyahtzee
RecordScore
p71
(dp72
g17
g42
sbs(I0
I0
I0
I0
I0
I0
I0
I0
I0
I0
I0
I0
I0
I0
I0
I2
I3
I3
I5
I6
tp73
(iyahtzee
Roll
p74
(dp75
g4
(lp76
I0
aI1
aI2
asbs(I0
I0
I0
I0
I0
I0
I0
I0
I0
I0
I0
I0
I0
I0
I0
I1
I3
I3
I3
I3
tp77
(iyahtzee
Roll
p78
(dp79
g4
(lp80
I0
asbs(I0
I0
I0
I0
I0
I0
I0
I0
I0
I0
I0
I0
I0
I0
I0
I1
I1
I1
I1
I2
tp81
(iyahtzee
Roll
p82
(dp83
g4
(lp84
I4
asbs(I0
I0
I0
I0
I0
I0
I0
I0
I0
I0
I0
I0
I0
I0
I0
I3
I3
I4
I5
I5
tp85
(iyahtzee
Roll
p86
(dp87
g4
(lp88
I0
aI3
asbs(I0
I0
I0
I0
I0
I0
I0
I0
I0
I0
I0
I0
I0
I0
I0
I1
I2
I3
I4
I6
tp89
(iyahtzee
RecordScore
p90
(dp91
g17
S'Small Straight'
p92
sbs(I0
I0
I0
I0
I0
I0
I0
I0
I0
I0
I0
I0
I0
I0
I0
I4
I4
I5
I6
I6
tp93
(iyahtzee
RecordScore
p94
(dp95
g17
g69
sbs(I0
I0
I0
I0
I0
I0
I0
I0
I0
I0
I0
I0
I0
I0
I0
I1
I4
I5
I5
I6
tp96
(iyahtzee
RecordScore
p97
(dp98
g17
g69
sbs(I0
I0
I0
I0
I0
I0
I0
I0
I0
I0
I0
I0
I0
I0
I0
I2
I3
I3
I4
I5
tp99
(iyahtzee
Roll
p100
(dp101
g4
(lp102
I1
asbs(I0
I0
I0
I0
I0
I0
I0
I0
I0
I0
I0
I0
I0
I0
I0
I1
I1
I1
I5
I6
tp103
(iyahtzee
Roll
p104
(dp105
g4
(lp106
I0
aI1
aI2
asbs(I0
I0
I0
I0
I0
I0
I0
I0
I0
I0
I0
I0
I0
I0
I0
I1
I2
I4
I4
I4
tp107
(iyahtzee
RecordScore
p108
(dp109
g17
g18
sbs(I0
I0
I0
I0
I0
I0
I0
I0
I0
I0
I0
I0
I0
I0
I0
I1
I3
I5
I6
I6
tp110
(iyahtzee
Roll
p111
(dp112
g4
(lp113
I0
aI1
aI2
asbs(I0
I0
I0
I0
I0
I0
I0
I0
I0
I0
I0
I0
I0
I0
I0
I1
I2
I2
I2
I3
tp114
(iyahtzee
RecordScore
p115
(dp116
g17
g42
sbs(I0
I0
I0
I0
I0
I0
I0
I0
I0
I0
I0
I0
I0
I0
I0
I2
I2
I4
I4
I5
tp117
(iyahtzee
Roll
p118
(dp119
g4
(lp120
I0
aI2
asbs(I0
I0
I0
I0
I0
I0
I0
I0
I0
I0
I0
I0
I0
I0
I0
I2
I3
I3
I3
I3
tp121
(iyahtzee
Roll
p122
(dp123
g4
(lp124
I0
asbs(I0
I0
I0
I0
I0
I0
I0
I0
I0
I0
I0
I0
I0
I0
I0
I1
I1
I1
I5
I5
tp125
(iyahtzee
RecordScore
p126
(dp127
g17
g53
sbs(I0
I0
I0
I0
I0
I0
I0
I0
I0
I0
I0
I0
I0
I0
I0
I1
I1
I1
I3
I5
tp128
(iyahtzee
Roll
p129
(dp130
g4
(lp131
I0
aI1
aI2
asbs(I0
I0
I0
I0
I0
I0
I0
I0
I0
I0
I0
I0
I0
I0
I0
I1
I1
I1
I1
I3
tp132
(iyahtzee
Roll
p133
(dp134
g4
(lp135
I4
asbs(I0
I0
I0
I0
I0
I0
I0
I0
I0
I0
I0
I0
I0
I0
I0
I1
I2
I3
I5
I5
tp136
(iyahtzee
Roll
p137
(dp138
g4
(lp139
I0
aI1
aI2
asbs(I0
I0
I0
I0
I0
I0
I0
I0
I0
I0
I0
I0
I0
I0
I0
I3
I4
I5
I6
I6
tp140
(iyahtzee
RecordScore
p141
(dp142
g17
g92
sbs(I0
I0
I0
I0
I0
I0
I0
I0
I0
I0
I0
I0
I0
I0
I0
I3
I3
I5
I5
I6
tp143
(iyahtzee
RecordScore
p144
(dp145
g17
g69
sbs(I0
I0
I0
I0
I0
I0
I0
I0
I0
I0
I0
I0
I0
I0
I0
I2
I2
I3
I5
I5
tp146
(iyahtzee
Roll
p147
(dp148
g4
(lp149
I0
aI1
aI2
asbs(I0
I0
I0
I0
I0
I0
I0
I0
I0
I0
I0
I0
I0
I0
I0
I2
I4
I4
I4
I4
tp150
(iyahtzee
Roll
p151
(dp152
g4
(lp153
I0
asbs(I0
I0
I0
I0
I0
I0
I0
I0
I0
I0
I0
I0
I0
I0
I0
I1
I2
I3
I3
I6
tp154
(iyahtzee
RecordScore
p155
(dp156
g17
S'Threes'
p157
sbs(I0
I0
I0
I0
I0
I0
I0
I0
I0
I0
I0
I0
I0
I0
I0
I1
I1
I2
I2
I6
tp158
(iyahtzee
Roll
p159
(dp160
g4
(lp161
I0
aI1
aI2
aI3
asbs(I0
I0
I0
I0
I0
I0
I0
I0
I0
I0
I0
I0
I0
I0
I0
I3
I4
I4
I4
I4
tp162
(iyahtzee
Roll
p163
(dp164
g4
(lp165
I0
asbs(I0
I0
I0
I0
I0
I0
I0
I0
I0
I0
I0
I0
I0
I0
I0
I3
I5
I5
I6
I6
tp166
(iyahtzee
RecordScore
p167
(dp168
g17
g69
sbs(I0
I0
I0
I0
I0
I0
I0
I0
I0
I0
I0
I0
I0
I0
I0
I1
I1
I1
I6
I6
tp169
(iyahtzee
RecordScore
p170
(dp171
g17
g53
sbs(I0
I0
I0
I0
I0
I0
I0
I0
I0
I0
I0
I0
I0
I0
I0
I1
I2
I2
I5
I6
tp172
(iyahtzee
Roll
p173
(dp174
g4
(lp175
I0
aI1
aI2
asbs(I0
I0
I0
I0
I0
I0
I0
I0
I0
I0
I0
I0
I0
I0
I0
I1
I4
I4
I4
I6
tp176
(iyahtzee
RecordScore
p177
(dp178
g17
g18
sbs(I0
I0
I0
I0
I0
I0
I0
I0
I0
I0
I0
I0
I0
I0
I0
I1
I1
I1
I2
I2
tp179
(iyahtzee
RecordScore
p180
(dp181
g17
g53
sbs(I0
I0
I0
I0
I0
I0
I0
I0
I0
I0
I0
I0
I0
I0
I0
I1
I3
I3
I3
I4
tp182
(iyahtzee
RecordScore
p183
(dp184
g17
g157
sbs(I0
I0
I0
I0
I0
I0
I0
I0
I0
I0
I0
I0
I0
I0
I0
I2
I2
I5
I5
I5
tp185
(iyahtzee
RecordScore
p186
(dp187
g17
g53
sbs(I0
I0
I0
I0
I0
I0
I0
I0
I0
I0
I0
I0
I0
I0
I0
I1
I4
I4
I6
I6
tp188
(iyahtzee
Roll
p189
(dp190
g4
(lp191
I0
aI1
aI2
asbs(I0
I0
I0
I0
I0
I0
I0
I0
I0
I0
I0
I0
I0
I0
I0
I1
I2
I2
I4
I5
tp192
(iyahtzee
Roll
p193
(dp194
g4
(lp195
I0
aI1
asbs(I0
I0
I0
I0
I0
I0
I0
I0
I0
I0
I0
I0
I0
I0
I0
I3
I3
I3
I6
I6
tp196
(iyahtzee
RecordScore
p197
(dp198
g17
g53
sbs(I0
I0
I0
I0
I0
I0
I0
I0
I0
I0
I0
I0
I0
I0
I0
I2
I3
I4
I5
I6
tp199
(iyahtzee
RecordScore
p200
(dp201
g17
S'Large Straight'
p202
sbs(I0
I0
I0
I0
I0
I0
I0
I0
I0
I0
I0
I0
I0
I0
I0
I1
I3
I5
I5
I5
tp203
(iyahtzee
Roll
p204
(dp205
g4
(lp206
I0
aI1
asbs(I0
I0
I0
I0
I0
I0
I0
I0
I0
I0
I0
I0
I0
I0
I0
I1
I1
I4
I4
I4
tp207
(iyahtzee
RecordScore
p208
(dp209
g17
g53
sbs(I0
I0
I0
I0
I0
I0
I0
I0
I0
I0
I0
I0
I0
I0
I0
I1
I2
I2
I2
I6
tp210
(iyahtzee
RecordScore
p211
(dp212
g17
g42
sbs(I0
I0
I0
I0
I0
I0
I0
I0
I0
I0
I0
I0
I0
I0
I0
I1
I1
I3
I3
I6
tp213
(iyahtzee
RecordScore
p214
(dp215
g17
g157
sbs(I0
I0
I0
I0
I0
I0
I0
I0
I0
I0
I0
I0
I0
I0
I0
I5
I5
I5
I6
I6
tp216
(iyahtzee
RecordScore
p217
(dp218
g17
g30
sbs(I0
I0
I0
I0
I0
I0
I0
I0
I0
I0
I0
I0
I0
I0
I0
I2
I2
I3
I4
I4
tp219
(iyahtzee
Roll
p220
(dp221
g4
(lp222
I0
aI3
asbs(I0
I0
I0
I0
I0
I0
I0
I0
I0
I0
I0
I0
I0
I0
I0
I1
I1
I1
I3
I6
tp223
(iyahtzee
Roll
p224
(dp225
g4
(lp226
I0
aI1
aI2
aI3
asbs(I0
I0
I0
I0
I0
I0
I0
I0
I0
I0
I0
I0
I0
I0
I0
I2
I4
I5
I6
I6
tp227
(iyahtzee
RecordScore
p228
(dp229
g17
g69
sbs(I0
I0
I0
I0
I0
I0
I0
I0
I0
I0
I0
I0
I0
I0
I0
I4
I5
I5
I6
I6
tp230
(iyahtzee
RecordScore
p231
(dp232
g17
g69
sbs(I0
I0
I0
I0
I0
I0
I0
I0
I0
I0
I0
I0
I0
I0
I0
I1
I5
I6
I6
I6
tp233
(iyahtzee
Roll
p234
(dp235
g4
(lp236
I0
aI1
asbs(I0
I0
I0
I0
I0
I0
I0
I0
I0
I0
I0
I0
I0
I0
I0
I2
I5
I6
I6
I6
tp237
(iyahtzee
RecordScore
p238
(dp239
g17
g30
sbs(I0
I0
I0
I0
I0
I0
I0
I0
I0
I0
I0
I0
I0
I0
I0
I1
I1
I5
I6
I6
tp240
(iyahtzee
Roll
p241
(dp242
g4
(lp243
I0
aI1
aI2
asbs(I0
I0
I0
I0
I0
I0
I0
I0
I0
I0
I0
I0
I0
I0
I0
I2
I2
I2
I3
I6
tp244
(iyahtzee
RecordScore
p245
(dp246
g17
g42
sbs(I0
I0
I0
I0
I0
I0
I0
I0
I0
I0
I0
I0
I0
I0
I0
I1
I2
I5
I6
I6
tp247
(iyahtzee
Roll
p248
(dp249
g4
(lp250
I0
aI1
aI2
asbs(I0
I0
I0
I0
I0
I0
I0
I0
I0
I0
I0
I0
I0
I0
I0
I1
I3
I4
I4
I4
tp251
(iyahtzee
RecordScore
p252
(dp253
g17
g18
sbs(I0
I0
I0
I0
I0
I0
I0
I0
I0
I0
I0
I0
I0
I0
I0
I2
I4
I4
I4
I5
tp254
(iyahtzee
RecordScore
p255
(dp256
g17
g18
sbs(I0
I0
I0
I0
I0
I0
I0
I0
I0
I0
I0
I0
I0
I0
I0
I1
I2
I3
I3
I5
tp257
(iyahtzee
Roll
p258
(dp259
g4
(lp260
I0
aI2
asbs(I0
I0
I0
I0
I0
I0
I0
I0
I0
I0
I0
I0
I0
I0
I0
I1
I3
I3
I6
I6
tp261
(iyahtzee
Roll
p262
(dp263
g4
(lp264
I0
aI1
aI2
asbs(I0
I0
I0
I0
I0
I0
I0
I0
I0
I0
I0
I0
I0
I0
I0
I2
I2
I4
I5
I5
tp265
(iyahtzee
Roll
p266
(dp267
g4
(lp268
I0
aI1
aI2
asbs(I0
I0
I0
I0
I0
I0
I0
I0
I0
I0
I0
I0
I0
I0
I0
I1
I1
I3
I4
I4
tp269
(iyahtzee
RecordScore
p270
(dp271
g17
g18
sbs(I0
I0
I0
I0
I0
I0
I0
I0
I0
I0
I0
I0
I0
I0
I0
I1
I1
I1
I2
I5
tp272
(iyahtzee
Roll
p273
(dp274
g4
(lp275
I0
aI1
aI2
aI3
asbs(I0
I0
I0
I0
I0
I0
I0
I0
I0
I0
I0
I0
I0
I0
I0
I3
I3
I4
I4
I4
tp276
(iyahtzee
RecordScore
p277
(dp278
g17
g53
sbs(I0
I0
I0
I0
I0
I0
I0
I0
I0
I0
I0
I0
I0
I0
I0
I3
I3
I3
I3
I6
tp279
(iyahtzee
Roll
p280
(dp281
g4
(lp282
I4
asbs(I0
I0
I0
I0
I0
I0
I0
I0
I0
I0
I0
I0
I0
I0
I0
I1
I3
I3
I3
I5
tp283
(iyahtzee
RecordScore
p284
(dp285
g17
g157
sbs(I0
I0
I0
I0
I0
I0
I0
I0
I0
I0
I0
I0
I0
I0
I0
I2
I2
I5
I5
I6
tp286
(iyahtzee
Roll
p287
(dp288
g4
(lp289
I0
aI1
asbs(I0
I0
I0
I0
I0
I0
I0
I0
I0
I0
I0
I0
I0
I0
I0
I1
I1
I1
I4
I6
tp290
(iyahtzee
Roll
p291
(dp292
g4
(lp293
I0
aI1
aI2
asbs(I0
I0
I0
I0
I0
I0
I0
I0
I0
I0
I0
I0
I0
I0
I0
I2
I4
I4
I5
I6
tp294
(iyahtzee
RecordScore
p295
(dp296
g17
g69
sbs(I0
I0
I0
I0
I0
I0
I0
I0
I0
I0
I0
I0
I0
I0
I0
I1
I1
I2
I4
I4
tp297
(iyahtzee
RecordScore
p298
(dp299
g17
g18
sbs(I0
I0
I0
I0
I0
I0
I0
I0
I0
I0
I0
I0
I0
I0
I0
I1
I4
I6
I6
I6
tp300
(iyahtzee
Roll
p301
(dp302
g4
(lp303
I0
aI1
asbs(I0
I0
I0
I0
I0
I0
I0
I0
I0
I0
I0
I0
I0
I0
I0
I2
I2
I2
I2
I2
tp304
(iyahtzee
RecordScore
p305
(dp306
g17
g49
sbs(I0
I0
I0
I0
I0
I0
I0
I0
I0
I0
I0
I0
I0
I0
I0
I1
I2
I2
I4
I4
tp307
(iyahtzee
RecordScore
p308
(dp309
g17
g18
sbs(I0
I0
I0
I0
I0
I0
I0
I0
I0
I0
I0
I0
I0
I0
I0
I2
I2
I3
I5
I6
tp310
(iyahtzee
Roll
p311
(dp312
g4
(lp313
I0
aI1
aI2
asbs(I0
I0
I0
I0
I0
I0
I0
I0
I0
I0
I0
I0
I0
I0
I0
I3
I5
I5
I5
I5
tp314
(iyahtzee
Roll
p315
(dp316
g4
(lp317
I0
asbs(I0
I0
I0
I0
I0
I0
I0
I0
I0
I0
I0
I0
I0
I0
I0
I1
I1
I2
I2
I2
tp318
(iyahtzee
RecordScore
p319
(dp320
g17
g53
sbs(I0
I0
I0
I0
I0
I0
I0
I0
I0
I0
I0
I0
I0
I0
I0
I1
I1
I4
I4
I5
tp321
(iyahtzee
RecordScore
p322
(dp323
g17
g18
sbs(I0
I0
I0
I0
I0
I0
I0
I0
I0
I0
I0
I0
I0
I0
I0
I1
I2
I2
I2
I5
tp324
(iyahtzee
RecordScore
p325
(dp326
g17
g42
sbs(I0
I0
I0
I0
I0
I0
I0
I0
I0
I0
I0
I0
I0
I0
I0
I4
I4
I4
I5
I5
tp327
(iyahtzee
RecordScore
p328
(dp329
g17
g53
sbs(I0
I0
I0
I0
I0
I0
I0
I0
I0
I0
I0
I0
I0
I0
I0
I1
I3
I4
I5
I5
tp330
(iyahtzee
Roll
p331
(dp332
g4
(lp333
I0
aI3
asbs(I0
I0
I0
I0
I0
I0
I0
I0
I0
I0
I0
I0
I0
I0
I0
I1
I1
I1
I1
I1
tp334
(iyahtzee
RecordScore
p335
(dp336
g17
g49
sbs(I0
I0
I0
I0
I0
I0
I0
I0
I0
I0
I0
I0
I0
I0
I0
I4
I4
I4
I4
I5
tp337
(iyahtzee
Roll
p338
(dp339
g4
(lp340
I4
asbs(I0
I0
I0
I0
I0
I0
I0
I0
I0
I0
I0
I0
I0
I0
I0
I1
I3
I3
I5
I5
tp341
(iyahtzee
Roll
p342
(dp343
g4
(lp344
I0
aI1
aI2
asbs(I0
I0
I0
I0
I0
I0
I0
I0
I0
I0
I0
I0
I0
I0
I0
I2
I4
I5
I5
I5
tp345
(iyahtzee
Roll
p346
(dp347
g4
(lp348
I0
aI1
asbs(I0
I0
I0
I0
I0
I0
I0
I0
I0
I0
I0
I0
I0
I0
I0
I2
I2
I4
I6
I6
tp349
(iyahtzee
Roll
p350
(dp351
g4
(lp352
I0
aI1
aI2
asbs(I0
I0
I0
I0
I0
I0
I0
I0
I0
I0
I0
I0
I0
I0
I0
I1
I3
I4
I4
I5
tp353
(iyahtzee
Roll
p354
(dp355
g4
(lp356
I0
aI2
asbs(I0
I0
I0
I0
I0
I0
I0
I0
I0
I0
I0
I0
I0
I0
I0
I1
I2
I3
I3
I4
tp357
(iyahtzee
RecordScore
p358
(dp359
g17
g92
sbs(I0
I0
I0
I0
I0
I0
I0
I0
I0
I0
I0
I0
I0
I0
I0
I1
I1
I2
I2
I4
tp360
(iyahtzee
Roll
p361
(dp362
g4
(lp363
I0
aI1
aI2
aI3
asbs(I0
I0
I0
I0
I0
I0
I0
I0
I0
I0
I0
I0
I0
I0
I0
I1
I1
I1
I1
I6
tp364
(iyahtzee
Roll
p365
(dp366
g4
(lp367
I4
asbs(I0
I0
I0
I0
I0
I0
I0
I0
I0
I0
I0
I0
I0
I0
I0
I3
I3
I5
I6
I6
tp368
(iyahtzee
RecordScore
p369
(dp370
g17
g69
sbs(I0
I0
I0
I0
I0
I0
I0
I0
I0
I0
I0
I0
I0
I0
I0
I1
I1
I4
I5
I6
tp371
(iyahtzee
Roll
p372
(dp373
g4
(lp374
I0
aI1
asbs(I0
I0
I0
I0
I0
I0
I0
I0
I0
I0
I0
I0
I0
I0
I0
I3
I3
I3
I4
I6
tp375
(iyahtzee
RecordScore
p376
(dp377
g17
g157
sbs(I0
I0
I0
I0
I0
I0
I0
I0
I0
I0
I0
I0
I0
I0
I0
I2
I2
I2
I6
I6
tp378
(iyahtzee
RecordScore
p379
(dp380
g17
g53
sbs(I0
I0
I0
I0
I0
I0
I0
I0
I0
I0
I0
I0
I0
I0
I0
I1
I1
I1
I2
I4
tp381
(iyahtzee
Roll
p382
(dp383
g4
(lp384
I0
aI1
aI2
aI3
asbs(I0
I0
I0
I0
I0
I0
I0
I0
I0
I0
I0
I0
I0
I0
I0
I3
I3
I4
I4
I5
tp385
(iyahtzee
Roll
p386
(dp387
g4
(lp388
I0
aI2
asbs(I0
I0
I0
I0
I0
I0
I0
I0
I0
I0
I0
I0
I0
I0
I0
I1
I1
I2
I5
I5
tp389
(iyahtzee
Roll
p390
(dp391
g4
(lp392
I0
aI1
aI2
asbs(I0
I0
I0
I0
I0
I0
I0
I0
I0
I0
I0
I0
I0
I0
I0
I1
I3
I3
I3
I6
tp393
(iyahtzee
RecordScore
p394
(dp395
g17
g157
sbs(I0
I0
I0
I0
I0
I0
I0
I0
I0
I0
I0
I0
I0
I0
I0
I1
I3
I3
I4
I6
tp396
(iyahtzee
Roll
p397
(dp398
g4
(lp399
I0
aI1
aI4
asbs(I0
I0
I0
I0
I0
I0
I0
I0
I0
I0
I0
I0
I0
I0
I0
I1
I1
I5
I5
I5
tp400
(iyahtzee
RecordScore
p401
(dp402
g17
g53
sbs(I0
I0
I0
I0
I0
I0
I0
I0
I0
I0
I0
I0
I0
I0
I0
I1
I1
I1
I4
I5
tp403
(iyahtzee
Roll
p404
(dp405
g4
(lp406
I0
aI1
aI2
asbs(I0
I0
I0
I0
I0
I0
I0
I0
I0
I0
I0
I0
I0
I0
I0
I1
I1
I5
I5
I6
tp407
(iyahtzee
Roll
p408
(dp409
g4
(lp410
I0
aI1
asbs(I0
I0
I0
I0
I0
I0
I0
I0
I0
I0
I0
I0
I0
I0
I0
I2
I4
I4
I5
I5
tp411
(iyahtzee
Roll
p412
(dp413
g4
(lp414
I0
aI1
aI2
asbs(I0
I0
I0
I0
I0
I0
I0
I0
I0
I0
I0
I0
I0
I0
I0
I1
I1
I2
I4
I5
tp415
(iyahtzee
Roll
p416
(dp417
g4
(lp418
I0
aI1
asbs(I0
I0
I0
I0
I0
I0
I0
I0
I0
I0
I0
I0
I0
I0
I0
I3
I3
I3
I4
I5
tp419
(iyahtzee
RecordScore
p420
(dp421
g17
g157
sbs(I0
I0
I0
I0
I0
I0
I0
I0
I0
I0
I0
I0
I0
I0
I0
I2
I2
I2
I2
I3
tp422
(iyahtzee
Roll
p423
(dp424
g4
(lp425
I4
asbs(I0
I0
I0
I0
I0
I0
I0
I0
I0
I0
I0
I0
I0
I0
I0
I4
I4
I5
I5
I5
tp426
(iyahtzee
RecordScore
p427
(dp428
g17
g53
sbs(I0
I0
I0
I0
I0
I0
I0
I0
I0
I0
I0
I0
I0
I0
I0
I3
I5
I5
I5
I6
tp429
(iyahtzee
RecordScore
p430
(dp431
g17
g30
sbs(I0
I0
I0
I0
I0
I0
I0
I0
I0
I0
I0
I0
I0
I0
I0
I5
I6
I6
I6
I6
tp432
(iyahtzee
RecordScore
p433
(dp434
g17
S'4 of a kind'
p435
sbs(I0
I0
I0
I0
I0
I0
I0
I0
I0
I0
I0
I0
I0
I0
I0
I1
I2
I4
I4
I5
tp436
(iyahtzee
Roll
p437
(dp438
g4
(lp439
I0
aI2
asbs(I0
I0
I0
I0
I0
I0
I0
I0
I0
I0
I0
I0
I0
I0
I0
I2
I3
I6
I6
I6
tp440
(iyahtzee
Roll
p441
(dp442
g4
(lp443
I0
aI1
asbs(I0
I0
I0
I0
I0
I0
I0
I0
I0
I0
I0
I0
I0
I0
I0
I2
I3
I3
I4
I4
tp444
(iyahtzee
Roll
p445
(dp446
g4
(lp447
I1
aI3
asbs(I0
I0
I0
I0
I0
I0
I0
I0
I0
I0
I0
I0
I0
I0
I0
I1
I2
I2
I2
I4
tp448
(iyahtzee
RecordScore
p449
(dp450
g17
g42
sbs(I0
I0
I0
I0
I0
I0
I0
I0
I0
I0
I0
I0
I0
I0
I0
I1
I1
I3
I3
I4
tp451
(iyahtzee
Roll
p452
(dp453
g4
(lp454
I0
aI1
aI2
asbs(I0
I0
I0
I0
I0
I0
I0
I0
I0
I0
I0
I0
I0
I0
I0
I1
I3
I4
I5
I6
tp455
(iyahtzee
RecordScore
p456
(dp457
g17
g92
sbs(I0
I0
I0
I0
I0
I0
I0
I0
I0
I0
I0
I0
I0
I0
I0
I2
I2
I2
I2
I4
tp458
(iyahtzee
Roll
p459
(dp460
g4
(lp461
I4
asbs(I0
I0
I0
I0
I0
I0
I0
I0
I0
I0
I0
I0
I0
I0
I0
I2
I3
I4
I6
I6
tp462
(iyahtzee
Roll
p463
(dp464
g4
(lp465
I0
aI1
aI2
asbs(I0
I0
I0
I0
I0
I0
I0
I0
I0
I0
I0
I0
I0
I0
I0
I3
I3
I4
I5
I6
tp466
(iyahtzee
RecordScore
p467
(dp468
g17
g92
sbs(I0
I0
I0
I0
I0
I0
I0
I0
I0
I0
I0
I0
I0
I0
I0
I3
I4
I4
I5
I6
tp469
(iyahtzee
RecordScore
p470
(dp471
g17
g92
sbs(I0
I0
I0
I0
I0
I0
I0
I0
I0
I0
I0
I0
I0
I0
I0
I1
I2
I3
I5
I6
tp472
(iyahtzee
Roll
p473
(dp474
g4
(lp475
I0
aI1
aI2
asbs(I0
I0
I0
I0
I0
I0
I0
I0
I0
I0
I0
I0
I0
I0
I0
I4
I4
I4
I4
I6
tp476
(iyahtzee
Roll
p477
(dp478
g4
(lp479
I4
asbs(I0
I0
I0
I0
I0
I0
I0
I0
I0
I0
I0
I0
I0
I0
I0
I1
I2
I4
I5
I6
tp480
(iyahtzee
Roll
p481
(dp482
g4
(lp483
I0
aI1
asbs(I0
I0
I0
I0
I0
I0
I0
I0
I0
I0
I0
I0
I0
I0
I0
I3
I3
I5
I5
I5
tp484
(iyahtzee
RecordScore
p485
(dp486
g17
g53
sbs(I0
I0
I0
I0
I0
I0
I0
I0
I0
I0
I0
I0
I0
I0
I0
I1
I2
I2
I3
I5
tp487
(iyahtzee
Roll
p488
(dp489
g4
(lp490
I0
aI1
asbs(I0
I0
I0
I0
I0
I0
I0
I0
I0
I0
I0
I0
I0
I0
I0
I1
I4
I4
I5
I5
tp491
(iyahtzee
Roll
p492
(dp493
g4
(lp494
I0
aI1
aI2
asbs(I0
I0
I0
I0
I0
I0
I0
I0
I0
I0
I0
I0
I0
I0
I0
I1
I1
I3
I4
I5
tp495
(iyahtzee
Roll
p496
(dp497
g4
(lp498
I0
aI1
asbs(I0
I0
I0
I0
I0
I0
I0
I0
I0
I0
I0
I0
I0
I0
I0
I1
I3
I4
I4
I6
tp499
(iyahtzee
RecordScore
p500
(dp501
g17
g18
sbs(I0
I0
I0
I0
I0
I0
I0
I0
I0
I0
I0
I0
I0
I0
I0
I1
I2
I3
I3
I3
tp502
(iyahtzee
RecordScore
p503
(dp504
g17
g157
sbs(I0
I0
I0
I0
I0
I0
I0
I0
I0
I0
I0
I0
I0
I0
I0
I1
I1
I2
I2
I5
tp505
(iyahtzee
Roll
p506
(dp507
g4
(lp508
I0
aI1
aI2
aI3
asbs(I0
I0
I0
I0
I0
I0
I0
I0
I0
I0
I0
I0
I0
I0
I0
I1
I2
I2
I3
I3
tp509
(iyahtzee
RecordScore
p510
(dp511
g17
g157
sbs(I0
I0
I0
I0
I0
I0
I0
I0
I0
I0
I0
I0
I0
I0
I0
I2
I5
I5
I5
I5
tp512
(iyahtzee
Roll
p513
(dp514
g4
(lp515
I0
asbs(I0
I0
I0
I0
I0
I0
I0
I0
I0
I0
I0
I0
I0
I0
I0
I1
I1
I4
I5
I5
tp516
(iyahtzee
Roll
p517
(dp518
g4
(lp519
I0
aI1
aI2
asbs(I0
I0
I0
I0
I0
I0
I0
I0
I0
I0
I0
I0
I0
I0
I0
I1
I1
I3
I5
I5
tp520
(iyahtzee
Roll
p521
(dp522
g4
(lp523
I0
aI1
aI2
asbs(I0
I0
I0
I0
I0
I0
I0
I0
I0
I0
I0
I0
I0
I0
I0
I2
I2
I4
I4
I6
tp524
(iyahtzee
RecordScore
p525
(dp526
g17
g18
sbs(I0
I0
I0
I0
I0
I0
I0
I0
I0
I0
I0
I0
I0
I0
I0
I2
I3
I3
I3
I4
tp527
(iyahtzee
RecordScore
p528
(dp529
g17
g157
sbs(I0
I0
I0
I0
I0
I0
I0
I0
I0
I0
I0
I0
I0
I0
I0
I2
I5
I5
I6
I6
tp530
(iyahtzee
RecordScore
p531
(dp532
g17
g69
sbs(I0
I0
I0
I0
I0
I0
I0
I0
I0
I0
I0
I0
I0
I0
I0
I2
I2
I3
I3
I3
tp533
(iyahtzee
RecordScore
p534
(dp535
g17
g53
sbs(I0
I0
I0
I0
I0
I0
I0
I0
I0
I0
I0
I0
I0
I0
I0
I3
I5
I6
I6
I6
tp536
(iyahtzee
RecordScore
p537
(dp538
g17
g30
sbs(I0
I0
I0
I0
I0
I0
I0
I0
I0
I0
I0
I0
I0
I0
I0
I4
I5
I6
I6
I6
tp539
(iyahtzee
RecordScore
p540
(dp541
g17
g30
sbs(I0
I0
I0
I0
I0
I0
I0
I0
I0
I0
I0
I0
I0
I0
I0
I1
I2
I3
I6
I6
tp542
(iyahtzee
Roll
p543
(dp544
g4
(lp545
I0
aI1
aI2
asbs(I0
I0
I0
I0
I0
I0
I0
I0
I0
I0
I0
I0
I0
I0
I0
I1
I3
I3
I4
I5
tp546
(iyahtzee
Roll
p547
(dp548
g4
(lp549
I0
aI1
asbs(I0
I0
I0
I0
I0
I0
I0
I0
I0
I0
I0
I0
I0
I0
I0
I2
I3
I5
I5
I6
tp550
(iyahtzee
RecordScore
p551
(dp552
g17
g69
sbs(I0
I0
I0
I0
I0
I0
I0
I0
I0
I0
I0
I0
I0
I0
I0
I1
I1
I1
I4
I4
tp553
(iyahtzee
RecordScore
p554
(dp555
g17
g53
sbs(I0
I0
I0
I0
I0
I0
I0
I0
I0
I0
I0
I0
I0
I0
I0
I1
I1
I3
I3
I3
tp556
(iyahtzee
RecordScore
p557
(dp558
g17
g53
sbs(I0
I0
I0
I0
I0
I0
I0
I0
I0
I0
I0
I0
I0
I0
I0
I1
I2
I6
I6
I6
tp559
(iyahtzee
Roll
p560
(dp561
g4
(lp562
I0
aI1
asbs(I0
I0
I0
I0
I0
I0
I0
I0
I0
I0
I0
I0
I0
I0
I0
I2
I2
I3
I3
I4
tp563
(iyahtzee
Roll
p564
(dp565
g4
(lp566
I0
aI2
asbs(I0
I0
I0
I0
I0
I0
I0
I0
I0
I0
I0
I0
I0
I0
I0
I1
I1
I2
I4
I6
tp567
(iyahtzee
Roll
p568
(dp569
g4
(lp570
I0
aI1
aI2
asbs(I0
I0
I0
I0
I0
I0
I0
I0
I0
I0
I0
I0
I0
I0
I0
I1
I1
I2
I3
I6
tp571
(iyahtzee
Roll
p572
(dp573
g4
(lp574
I0
aI1
aI2
aI3
asbs(I0
I0
I0
I0
I0
I0
I0
I0
I0
I0
I0
I0
I0
I0
I0
I2
I2
I2
I4
I6
tp575
(iyahtzee
RecordScore
p576
(dp577
g17
g42
sbs(I0
I0
I0
I0
I0
I0
I0
I0
I0
I0
I0
I0
I0
I0
I0
I1
I2
I4
I6
I6
tp578
(iyahtzee
Roll
p579
(dp580
g4
(lp581
I0
aI1
aI2
asbs(I0
I0
I0
I0
I0
I0
I0
I0
I0
I0
I0
I0
I0
I0
I0
I2
I3
I3
I5
I5
tp582
(iyahtzee
Roll
p583
(dp584
g4
(lp585
I0
aI1
aI2
asbs(I0
I0
I0
I0
I0
I0
I0
I0
I0
I0
I0
I0
I0
I0
I0
I1
I2
I2
I4
I6
tp586
(iyahtzee
Roll
p587
(dp588
g4
(lp589
I0
aI1
aI2
asbs(I0
I0
I0
I0
I0
I0
I0
I0
I0
I0
I0
I0
I0
I0
I0
I4
I4
I5
I5
I6
tp590
(iyahtzee
RecordScore
p591
(dp592
g17
g69
sbs(I0
I0
I0
I0
I0
I0
I0
I0
I0
I0
I0
I0
I0
I0
I0
I2
I2
I2
I3
I3
tp593
(iyahtzee
RecordScore
p594
(dp595
g17
g53
sbs(I0
I0
I0
I0
I0
I0
I0
I0
I0
I0
I0
I0
I0
I0
I0
I2
I3
I4
I5
I5
tp596
(iyahtzee
Roll
p597
(dp598
g4
(lp599
I3
asbs(I0
I0
I0
I0
I0
I0
I0
I0
I0
I0
I0
I0
I0
I0
I0
I2
I6
I6
I6
I6
tp600
(iyahtzee
Roll
p601
(dp602
g4
(lp603
I0
asbs(I0
I0
I0
I0
I0
I0
I0
I0
I0
I0
I0
I0
I0
I0
I0
I3
I3
I3
I5
I5
tp604
(iyahtzee
RecordScore
p605
(dp606
g17
g53
sbs(I0
I0
I0
I0
I0
I0
I0
I0
I0
I0
I0
I0
I0
I0
I0
I1
I4
I5
I5
I5
tp607
(iyahtzee
Roll
p608
(dp609
g4
(lp610
I0
aI1
asbs(I0
I0
I0
I0
I0
I0
I0
I0
I0
I0
I0
I0
I0
I0
I0
I1
I1
I3
I3
I5
tp611
(iyahtzee
RecordScore
p612
(dp613
g17
g157
sbs(I0
I0
I0
I0
I0
I0
I0
I0
I0
I0
I0
I0
I0
I0
I0
I1
I5
I5
I5
I6
tp614
(iyahtzee
Roll
p615
(dp616
g4
(lp617
I0
aI4
asbs(I0
I0
I0
I0
I0
I0
I0
I0
I0
I0
I0
I0
I0
I0
I0
I2
I2
I2
I2
I5
tp618
(iyahtzee
Roll
p619
(dp620
g4
(lp621
I4
asbs(I0
I0
I0
I0
I0
I0
I0
I0
I0
I0
I0
I0
I0
I0
I0
I5
I5
I6
I6
I6
tp622
(iyahtzee
RecordScore
p623
(dp624
g17
g30
sbs(I0
I0
I0
I0
I0
I0
I0
I0
I0
I0
I0
I0
I0
I0
I0
I1
I6
I6
I6
I6
tp625
(iyahtzee
Roll
p626
(dp627
g4
(lp628
I0
asbs(I0
I0
I0
I0
I0
I0
I0
I0
I0
I0
I0
I0
I0
I0
I0
I1
I3
I4
I6
I6
tp629
(iyahtzee
Roll
p630
(dp631
g4
(lp632
I0
aI1
aI2
asbs(I0
I0
I0
I0
I0
I0
I0
I0
I0
I0
I0
I0
I0
I0
I0
I2
I4
I6
I6
I6
tp633
(iyahtzee
Roll
p634
(dp635
g4
(lp636
I0
aI1
asbs(I0
I0
I0
I0
I0
I0
I0
I0
I0
I0
I0
I0
I0
I0
I0
I3
I4
I6
I6
I6
tp637
(iyahtzee
RecordScore
p638
(dp639
g17
g30
sbs(I0
I0
I0
I0
I0
I0
I0
I0
I0
I0
I0
I0
I0
I0
I0
I1
I4
I4
I5
I6
tp640
(iyahtzee
Roll
p641
(dp642
g4
(lp643
I0
aI1
asbs(I0
I0
I0
I0
I0
I0
I0
I0
I0
I0
I0
I0
I0
I0
I0
I4
I5
I5
I5
I6
tp644
(iyahtzee
RecordScore
p645
(dp646
g17
g30
sbs(I0
I0
I0
I0
I0
I0
I0
I0
I0
I0
I0
I0
I0
I0
I0
I3
I4
I4
I6
I6
tp647
(iyahtzee
RecordScore
p648
(dp649
g17
g69
sbs(I0
I0
I0
I0
I0
I0
I0
I0
I0
I0
I0
I0
I0
I0
I0
I2
I3
I4
I4
I6
tp650
(iyahtzee
Roll
p651
(dp652
g4
(lp653
I2
aI4
asbs(I0
I0
I0
I0
I0
I0
I0
I0
I0
I0
I0
I0
I0
I0
I0
I2
I2
I6
I6
I6
tp654
(iyahtzee
RecordScore
p655
(dp656
g17
g53
sbs(I0
I0
I0
I0
I0
I0
I0
I0
I0
I0
I0
I0
I0
I0
I0
I1
I1
I1
I1
I4
tp657
(iyahtzee
Roll
p658
(dp659
g4
(lp660
I4
asbs(I0
I0
I0
I0
I0
I0
I0
I0
I0
I0
I0
I0
I0
I0
I0
I1
I2
I5
I5
I6
tp661
(iyahtzee
Roll
p662
(dp663
g4
(lp664
I0
aI1
asbs(I0
I0
I0
I0
I0
I0
I0
I0
I0
I0
I0
I0
I0
I0
I0
I2
I2
I4
I5
I6
tp665
(iyahtzee
Roll
p666
(dp667
g4
(lp668
I0
aI1
asbs(I0
I0
I0
I0
I0
I0
I0
I0
I0
I0
I0
I0
I0
I0
I0
I1
I1
I3
I5
I6
tp669
(iyahtzee
Roll
p670
(dp671
g4
(lp672
I0
aI1
aI2
asbs(I0
I0
I0
I0
I0
I0
I0
I0
I0
I0
I0
I0
I0
I0
I0
I1
I2
I2
I3
I4
tp673
(iyahtzee
RecordScore
p674
(dp675
g17
g92
sbs(I0
I0
I0
I0
I0
I0
I0
I0
I0
I0
I0
I0
I0
I0
I0
I1
I1
I1
I2
I6
tp676
(iyahtzee
Roll
p677
(dp678
g4
(lp679
I0
aI1
aI2
aI3
asbs(I0
I0
I0
I0
I0
I0
I0
I0
I0
I0
I0
I0
I0
I0
I0
I4
I4
I6
I6
I6
tp680
(iyahtzee
RecordScore
p681
(dp682
g17
g30
sbs(I0
I0
I0
I0
I0
I0
I0
I0
I0
I0
I0
I0
I0
I0
I0
I1
I3
I5
I5
I6
tp683
(iyahtzee
Roll
p684
(dp685
g4
(lp686
I0
aI1
asbs(I0
I0
I0
I0
I0
I0
I0
I0
I0
I0
I0
I0
I0
I0
I0
I3
I3
I3
I3
I4
tp687
(iyahtzee
Roll
p688
(dp689
g4
(lp690
I4
asbs(I0
I0
I0
I0
I0
I0
I0
I0
I0
I0
I0
I0
I0
I0
I0
I3
I3
I3
I3
I5
tp691
(iyahtzee
Roll
p692
(dp693
g4
(lp694
I4
asbs(I0
I0
I0
I0
I0
I0
I0
I0
I0
I0
I0
I0
I0
I0
I0
I3
I6
I6
I6
I6
tp695
(iyahtzee
Roll
p696
(dp697
g4
(lp698
I0
asbs(I0
I0
I0
I0
I0
I0
I0
I0
I0
I0
I0
I0
I0
I0
I0
I4
I4
I4
I4
I4
tp699
(iyahtzee
RecordScore
p700
(dp701
g17
g49
sbs(I0
I0
I0
I0
I0
I0
I0
I0
I0
I0
I0
I0
I0
I0
I0
I1
I3
I3
I4
I4
tp702
(iyahtzee
RecordScore
p703
(dp704
g17
g18
sbs(I0
I0
I0
I0
I0
I0
I0
I0
I0
I0
I0
I0
I0
I0
I0
I2
I3
I5
I5
I5
tp705
(iyahtzee
Roll
p706
(dp707
g4
(lp708
I0
aI1
asbs(I0
I0
I0
I0
I0
I0
I0
I0
I0
I0
I0
I0
I0
I0
I0
I1
I4
I4
I4
I5
tp709
(iyahtzee
RecordScore
p710
(dp711
g17
g18
sbs(I0
I0
I0
I0
I0
I0
I0
I0
I0
I0
I0
I0
I0
I0
I0
I2
I2
I3
I3
I5
tp712
(iyahtzee
Roll
p713
(dp714
g4
(lp715
I0
aI2
asbs(I0
I0
I0
I0
I0
I0
I0
I0
I0
I0
I0
I0
I0
I0
I0
I4
I6
I6
I6
I6
tp716
(iyahtzee
RecordScore
p717
(dp718
g17
g435
sbs(I0
I0
I0
I0
I0
I0
I0
I0
I0
I0
I0
I0
I0
I0
I0
I1
I1
I2
I3
I5
tp719
(iyahtzee
Roll
p720
(dp721
g4
(lp722
I0
aI1
asbs(I0
I0
I0
I0
I0
I0
I0
I0
I0
I0
I0
I0
I0
I0
I0
I3
I3
I3
I4
I4
tp723
(iyahtzee
RecordScore
p724
(dp725
g17
g53
sbs(I0
I0
I0
I0
I0
I0
I0
I0
I0
I0
I0
I0
I0
I0
I0
I1
I1
I6
I6
I6
tp726
(iyahtzee
RecordScore
p727
(dp728
g17
g53
sbs(I0
I0
I0
I0
I0
I0
I0
I0
I0
I0
I0
I0
I0
I0
I0
I5
I5
I5
I5
I5
tp729
(iyahtzee
RecordScore
p730
(dp731
g17
g49
sbs(I0
I0
I0
I0
I0
I0
I0
I0
I0
I0
I0
I0
I0
I0
I0
I6
I6
I6
I6
I6
tp732
(iyahtzee
RecordScore
p733
(dp734
g17
g49
sbs(I0
I0
I0
I0
I0
I0
I0
I0
I0
I0
I0
I0
I0
I0
I0
I3
I4
I5
I5
I6
tp735
(iyahtzee
RecordScore
p736
(dp737
g17
g92
sbs(I0
I0
I0
I0
I0
I0
I0
I0
I0
I0
I0
I0
I0
I0
I0
I2
I4
I4
I6
I6
tp738
(iyahtzee
RecordScore
p739
(dp740
g17
g69
sbs(I0
I0
I0
I0
I0
I0
I0
I0
I0
I0
I0
I0
I0
I0
I0
I1
I1
I4
I6
I6
tp741
(iyahtzee
Roll
p742
(dp743
g4
(lp744
I0
aI1
aI2
asbs(I0
I0
I0
I0
I0
I0
I0
I0
I0
I0
I0
I0
I0
I0
I0
I1
I2
I3
I4
I4
tp745
(iyahtzee
RecordScore
p746
(dp747
g17
g92
sbs(I0
I0
I0
I0
I0
I0
I0
I0
I0
I0
I0
I0
I0
I0
I0
I3
I3
I3
I5
I6
tp748
(iyahtzee
RecordScore
p749
(dp750
g17
g30
sbs(I0
I0
I0
I0
I0
I0
I0
I0
I0
I0
I0
I0
I0
I0
I0
I1
I2
I2
I2
I2
tp751
(iyahtzee
Roll
p752
(dp753
g4
(lp754
I0
asbs(I0
I0
I0
I0
I0
I0
I0
I0
I0
I0
I0
I0
I0
I0
I0
I1
I1
I2
I6
I6
tp755
(iyahtzee
Roll
p756
(dp757
g4
(lp758
I0
aI1
aI2
asbs(I0
I0
I0
I0
I0
I0
I0
I0
I0
I0
I0
I0
I0
I0
I0
I4
I4
I4
I5
I6
tp759
(iyahtzee
RecordScore
p760
(dp761
g17
g30
sbs(I0
I0
I0
I0
I0
I0
I0
I0
I0
I0
I0
I0
I0
I0
I0
I2
I2
I2
I2
I6
tp762
(iyahtzee
Roll
p763
(dp764
g4
(lp765
I4
asbs(I0
I0
I0
I0
I0
I0
I0
I0
I0
I0
I0
I0
I0
I0
I0
I1
I2
I4
I4
I6
tp766
(iyahtzee
RecordScore
p767
(dp768
g17
g18
sbs(I0
I0
I0
I0
I0
I0
I0
I0
I0
I0
I0
I0
I0
I0
I0
I1
I2
I2
I6
I6
tp769
(iyahtzee
Roll
p770
(dp771
g4
(lp772
I0
aI1
aI2
asbs(I0
I0
I0
I0
I0
I0
I0
I0
I0
I0
I0
I0
I0
I0
I0
I3
I4
I4
I5
I5
tp773
(iyahtzee
Roll
p774
(dp775
g4
(lp776
I1
aI3
asbs(I0
I0
I0
I0
I0
I0
I0
I0
I0
I0
I0
I0
I0
I0
I0
I2
I2
I3
I4
I5
tp777
(iyahtzee
Roll
p778
(dp779
g4
(lp780
I0
asbs(I0
I0
I0
I0
I0
I0
I0
I0
I0
I0
I0
I0
I0
I0
I0
I1
I3
I6
I6
I6
tp781
(iyahtzee
Roll
p782
(dp783
g4
(lp784
I0
aI1
asbs(I0
I0
I0
I0
I0
I0
I0
I0
I0
I0
I0
I0
I0
I0
I0
I4
I5
I5
I5
I5
tp785
(iyahtzee
Roll
p786
(dp787
g4
(lp788
I0
asbs(I0
I0
I0
I0
I0
I0
I0
I0
I0
I0
I0
I0
I0
I0
I0
I1
I1
I4
I4
I6
tp789
(iyahtzee
RecordScore
p790
(dp791
g17
g18
sbs(I0
I0
I0
I0
I0
I0
I0
I0
I0
I0
I0
I0
I0
I0
I0
I2
I3
I4
I4
I5
tp792
(iyahtzee
Roll
p793
(dp794
g4
(lp795
I2
asbs(I0
I0
I0
I0
I0
I0
I0
I0
I0
I0
I0
I0
I0
I0
I0
I1
I1
I2
I2
I3
tp796
(iyahtzee
RecordScore
p797
(dp798
g17
g42
sbs(I0
I0
I0
I0
I0
I0
I0
I0
I0
I0
I0
I0
I0
I0
I0
I1
I1
I1
I1
I5
tp799
(iyahtzee
Roll
p800
(dp801
g4
(lp802
I4
asbs(I0
I0
I0
I0
I0
I0
I0
I0
I0
I0
I0
I0
I0
I0
I0
I1
I2
I5
I5
I5
tp803
(iyahtzee
Roll
p804
(dp805
g4
(lp806
I0
aI1
asbs(I0
I0
I0
I0
I0
I0
I0
I0
I0
I0
I0
I0
I0
I0
I0
I3
I3
I6
I6
I6
tp807
(iyahtzee
RecordScore
p808
(dp809
g17
g53
sbs(I0
I0
I0
I0
I0
I0
I0
I0
I0
I0
I0
I0
I0
I0
I0
I2
I2
I2
I3
I5
tp810
(iyahtzee
RecordScore
p811
(dp812
g17
g42
sbs(I0
I0
I0
I0
I0
I0
I0
I0
I0
I0
I0
I0
I0
I0
I0
I3
I3
I4
I6
I6
tp813
(iyahtzee
RecordScore
p814
(dp815
g17
g69
sbs(I0
I0
I0
I0
I0
I0
I0
I0
I0
I0
I0
I0
I0
I0
I0
I2
I4
I4
I4
I6
tp816
(iyahtzee
RecordScore
p817
(dp818
g17
g18
sbs(I0
I0
I0
I0
I0
I0
I0
I0
I0
I0
I0
I0
I0
I0
I0
I3
I4
I4
I4
I6
tp819
(iyahtzee
RecordScore
p820
(dp821
g17
g30
sbs(I0
I0
I0
I0
I0
I0
I0
I0
I0
I0
I0
I0
I0
I0
I0
I1
I1
I2
I5
I6
tp822
(iyahtzee
Roll
p823
(dp824
g4
(lp825
I0
aI1
aI2
asbs(I0
I0
I0
I0
I0
I0
I0
I0
I0
I0
I0
I0
I0
I0
I0
I2
I2
I2
I5
I6
tp826
(iyahtzee
RecordScore
p827
(dp828
g17
g42
sbs(I0
I0
I0
I0
I0
I0
I0
I0
I0
I0
I0
I0
I0
I0
I0
I4
I4
I4
I6
I6
tp829
(iyahtzee
RecordScore
p830
(dp831
g17
g53
sbs(I0
I0
I0
I0
I0
I0
I0
I0
I0
I0
I0
I0
I0
I0
I0
I1
I4
I4
I4
I4
tp832
(iyahtzee
Roll
p833
(dp834
g4
(lp835
I0
asbs(I0
I0
I0
I0
I0
I0
I0
I0
I0
I0
I0
I0
I0
I0
I0
I2
I2
I3
I3
I6
tp836
(iyahtzee
RecordScore
p837
(dp838
g17
g157
sbs(I0
I0
I0
I0
I0
I0
I0
I0
I0
I0
I0
I0
I0
I0
I0
I1
I1
I2
I3
I4
tp839
(iyahtzee
RecordScore
p840
(dp841
g17
g92
sbs(I0
I0
I0
I0
I0
I0
I0
I0
I0
I0
I0
I0
I0
I0
I0
I2
I2
I2
I4
I4
tp842
(iyahtzee
RecordScore
p843
(dp844
g17
g53
sbs(I0
I0
I0
I0
I0
I0
I0
I0
I0
I0
I0
I0
I0
I0
I0
I2
I3
I3
I4
I6
tp845
(iyahtzee
Roll
p846
(dp847
g4
(lp848
I1
aI4
asbs(I0
I0
I0
I0
I0
I0
I0
I0
I0
I0
I0
I0
I0
I0
I0
I1
I5
I5
I6
I6
tp849
(iyahtzee
RecordScore
p850
(dp851
g17
g69
sbs(I0
I0
I0
I0
I0
I0
I0
I0
I0
I0
I0
I0
I0
I0
I0
I2
I2
I4
I4
I4
tp852
(iyahtzee
RecordScore
p853
(dp854
g17
g53
sbs(I0
I0
I0
I0
I0
I0
I0
I0
I0
I0
I0
I0
I0
I0
I0
I3
I4
I5
I5
I5
tp855
(iyahtzee
Roll
p856
(dp857
g4
(lp858
I0
aI1
asbs(I0
I0
I0
I0
I0
I0
I0
I0
I0
I0
I0
I0
I0
I0
I0
I1
I5
I5
I5
I5
tp859
(iyahtzee
Roll
p860
(dp861
g4
(lp862
I0
asbs(I0
I0
I0
I0
I0
I0
I0
I0
I0
I0
I0
I0
I0
I0
I0
I1
I2
I3
I4
I5
tp863
(iyahtzee
RecordScore
p864
(dp865
g17
g202
sbs(I0
I0
I0
I0
I0
I0
I0
I0
I0
I0
I0
I0
I0
I0
I0
I1
I1
I2
I3
I3
tp866
(iyahtzee
RecordScore
p867
(dp868
g17
g157
sbs(I0
I0
I0
I0
I0
I0
I0
I0
I0
I0
I0
I0
I0
I0
I0
I2
I3
I3
I3
I5
tp869
(iyahtzee
RecordScore
p870
(dp871
g17
g157
sbs(I0
I0
I0
I0
I0
I0
I0
I0
I0
I0
I0
I0
I0
I0
I0
I2
I3
I3
I3
I6
tp872
(iyahtzee
RecordScore
p873
(dp874
g17
g157
sbs(I0
I0
I0
I0
I0
I0
I0
I0
I0
I0
I0
I0
I0
I0
I0
I2
I2
I3
I6
I6
tp875
(iyahtzee
Roll
p876
(dp877
g4
(lp878
I0
aI1
aI2
asbs(I0
I0
I0
I0
I0
I0
I0
I0
I0
I0
I0
I0
I0
I0
I0
I5
I5
I5
I5
I6
tp879
(iyahtzee
RecordScore
p880
(dp881
g17
g435
sbs(I0
I0
I0
I0
I0
I0
I0
I0
I0
I0
I0
I0
I0
I0
I0
I1
I1
I1
I3
I3
tp882
(iyahtzee
RecordScore
p883
(dp884
g17
g53
sbs(I0
I0
I0
I0
I0
I0
I0
I0
I0
I0
I0
I0
I0
I0
I0
I2
I3
I5
I6
I6
tp885
(iyahtzee
RecordScore
p886
(dp887
g17
g69
sbs(I0
I0
I0
I0
I0
I0
I0
I0
I0
I0
I0
I0
I0
I0
I0
I2
I4
I5
I5
I6
tp888
(iyahtzee
RecordScore
p889
(dp890
g17
g69
sbs(I0
I0
I0
I0
I0
I0
I0
I0
I0
I0
I0
I0
I0
I0
I0
I1
I4
I5
I6
I6
tp891
(iyahtzee
RecordScore
p892
(dp893
g17
g69
sbs(I0
I0
I0
I0
I0
I0
I0
I0
I0
I0
I0
I0
I0
I0
I0
I2
I3
I3
I6
I6
tp894
(iyahtzee
Roll
p895
(dp896
g4
(lp897
I0
aI1
aI2
asbs.